

Microchip Technology PIC PRO Macro Assembler V1.20 build 52243 
                                                                                               Tue Jan 21 15:13:30 2014

Microchip Technology Omniscient Code Generator (PRO mode) build 52243
     1                           	processor	16F1508
     2                           	opt	pw 120
     3                           	opt	pm
     4                           	psect	idataBANK0,global,class=CODE,delta=2
     5                           	psect	cinit,global,class=CODE,merge=1,delta=2
     6                           	psect	dataBANK0,global,class=BANK0,space=1,delta=1
     7                           	psect	inittext,global,class=CODE,delta=2
     8                           	psect	cstackCOMMON,global,class=COMMON,space=1,delta=1
     9                           	psect	cstackBANK0,global,class=BANK0,space=1,delta=1
    10                           	psect	pa_nodes,global,class=CODE,delta=2
    11                           	dabs	1,0x7E,2
    12  0000                     	;# 
    13  0001                     	;# 
    14  0002                     	;# 
    15  0003                     	;# 
    16  0004                     	;# 
    17  0005                     	;# 
    18  0006                     	;# 
    19  0007                     	;# 
    20  0008                     	;# 
    21  0009                     	;# 
    22  000A                     	;# 
    23  000B                     	;# 
    24  000C                     	;# 
    25  000D                     	;# 
    26  000E                     	;# 
    27  0011                     	;# 
    28  0012                     	;# 
    29  0013                     	;# 
    30  0015                     	;# 
    31  0016                     	;# 
    32  0016                     	;# 
    33  0017                     	;# 
    34  0018                     	;# 
    35  0019                     	;# 
    36  001A                     	;# 
    37  001B                     	;# 
    38  001C                     	;# 
    39  008C                     	;# 
    40  008D                     	;# 
    41  008E                     	;# 
    42  0091                     	;# 
    43  0092                     	;# 
    44  0093                     	;# 
    45  0095                     	;# 
    46  0096                     	;# 
    47  0097                     	;# 
    48  0099                     	;# 
    49  009A                     	;# 
    50  009B                     	;# 
    51  009B                     	;# 
    52  009C                     	;# 
    53  009D                     	;# 
    54  009E                     	;# 
    55  009F                     	;# 
    56  010C                     	;# 
    57  010D                     	;# 
    58  010E                     	;# 
    59  0111                     	;# 
    60  0112                     	;# 
    61  0113                     	;# 
    62  0114                     	;# 
    63  0115                     	;# 
    64  0116                     	;# 
    65  0117                     	;# 
    66  0118                     	;# 
    67  0119                     	;# 
    68  011D                     	;# 
    69  018C                     	;# 
    70  018D                     	;# 
    71  018E                     	;# 
    72  0191                     	;# 
    73  0191                     	;# 
    74  0192                     	;# 
    75  0193                     	;# 
    76  0193                     	;# 
    77  0194                     	;# 
    78  0195                     	;# 
    79  0196                     	;# 
    80  0197                     	;# 
    81  0199                     	;# 
    82  019A                     	;# 
    83  019B                     	;# 
    84  019C                     	;# 
    85  019D                     	;# 
    86  019E                     	;# 
    87  019F                     	;# 
    88  020C                     	;# 
    89  020D                     	;# 
    90  0211                     	;# 
    91  0211                     	;# 
    92  0212                     	;# 
    93  0212                     	;# 
    94  0213                     	;# 
    95  0213                     	;# 
    96  0214                     	;# 
    97  0214                     	;# 
    98  0215                     	;# 
    99  0215                     	;# 
   100  0215                     	;# 
   101  0216                     	;# 
   102  0216                     	;# 
   103  0217                     	;# 
   104  0217                     	;# 
   105  0391                     	;# 
   106  0392                     	;# 
   107  0393                     	;# 
   108  0394                     	;# 
   109  0395                     	;# 
   110  0396                     	;# 
   111  0498                     	;# 
   112  0498                     	;# 
   113  0499                     	;# 
   114  049A                     	;# 
   115  049B                     	;# 
   116  049B                     	;# 
   117  049C                     	;# 
   118  049E                     	;# 
   119  049F                     	;# 
   120  0611                     	;# 
   121  0612                     	;# 
   122  0613                     	;# 
   123  0613                     	;# 
   124  0614                     	;# 
   125  0615                     	;# 
   126  0616                     	;# 
   127  0616                     	;# 
   128  0617                     	;# 
   129  0618                     	;# 
   130  0619                     	;# 
   131  0619                     	;# 
   132  061A                     	;# 
   133  061B                     	;# 
   134  061C                     	;# 
   135  061C                     	;# 
   136  0691                     	;# 
   137  0692                     	;# 
   138  0693                     	;# 
   139  0694                     	;# 
   140  0695                     	;# 
   141  0F0F                     	;# 
   142  0F10                     	;# 
   143  0F11                     	;# 
   144  0F12                     	;# 
   145  0F13                     	;# 
   146  0F14                     	;# 
   147  0F15                     	;# 
   148  0F16                     	;# 
   149  0F17                     	;# 
   150  0F18                     	;# 
   151  0F19                     	;# 
   152  0F1A                     	;# 
   153  0F1B                     	;# 
   154  0F1C                     	;# 
   155  0F1D                     	;# 
   156  0F1E                     	;# 
   157  0F1F                     	;# 
   158  0F20                     	;# 
   159  0F21                     	;# 
   160  0F22                     	;# 
   161  0F23                     	;# 
   162  0F24                     	;# 
   163  0F25                     	;# 
   164  0F26                     	;# 
   165  0F27                     	;# 
   166  0F28                     	;# 
   167  0F29                     	;# 
   168  0F2A                     	;# 
   169  0F2B                     	;# 
   170  0F2C                     	;# 
   171  0F2D                     	;# 
   172  0F2E                     	;# 
   173  0F2F                     	;# 
   174  0F8C                     	;# 
   175  0F8D                     	;# 
   176  0F91                     	;# 
   177  0F95                     	;# 
   178  0F96                     	;# 
   179  0F97                     	;# 
   180  0F9C                     	;# 
   181  0F9D                     	;# 
   182  0F9E                     	;# 
   183  0FE3                     	;# 
   184  0FE4                     	;# 
   185  0FE5                     	;# 
   186  0FE6                     	;# 
   187  0FE7                     	;# 
   188  0FE8                     	;# 
   189  0FE9                     	;# 
   190  0FEA                     	;# 
   191  0FEB                     	;# 
   192  0FED                     	;# 
   193  0FEE                     	;# 
   194  0FEF                     	;# 
   195  0000                     	;# 
   196  0001                     	;# 
   197  0002                     	;# 
   198  0003                     	;# 
   199  0004                     	;# 
   200  0005                     	;# 
   201  0006                     	;# 
   202  0007                     	;# 
   203  0008                     	;# 
   204  0009                     	;# 
   205  000A                     	;# 
   206  000B                     	;# 
   207  000C                     	;# 
   208  000D                     	;# 
   209  000E                     	;# 
   210  0011                     	;# 
   211  0012                     	;# 
   212  0013                     	;# 
   213  0015                     	;# 
   214  0016                     	;# 
   215  0016                     	;# 
   216  0017                     	;# 
   217  0018                     	;# 
   218  0019                     	;# 
   219  001A                     	;# 
   220  001B                     	;# 
   221  001C                     	;# 
   222  008C                     	;# 
   223  008D                     	;# 
   224  008E                     	;# 
   225  0091                     	;# 
   226  0092                     	;# 
   227  0093                     	;# 
   228  0095                     	;# 
   229  0096                     	;# 
   230  0097                     	;# 
   231  0099                     	;# 
   232  009A                     	;# 
   233  009B                     	;# 
   234  009B                     	;# 
   235  009C                     	;# 
   236  009D                     	;# 
   237  009E                     	;# 
   238  009F                     	;# 
   239  010C                     	;# 
   240  010D                     	;# 
   241  010E                     	;# 
   242  0111                     	;# 
   243  0112                     	;# 
   244  0113                     	;# 
   245  0114                     	;# 
   246  0115                     	;# 
   247  0116                     	;# 
   248  0117                     	;# 
   249  0118                     	;# 
   250  0119                     	;# 
   251  011D                     	;# 
   252  018C                     	;# 
   253  018D                     	;# 
   254  018E                     	;# 
   255  0191                     	;# 
   256  0191                     	;# 
   257  0192                     	;# 
   258  0193                     	;# 
   259  0193                     	;# 
   260  0194                     	;# 
   261  0195                     	;# 
   262  0196                     	;# 
   263  0197                     	;# 
   264  0199                     	;# 
   265  019A                     	;# 
   266  019B                     	;# 
   267  019C                     	;# 
   268  019D                     	;# 
   269  019E                     	;# 
   270  019F                     	;# 
   271  020C                     	;# 
   272  020D                     	;# 
   273  0211                     	;# 
   274  0211                     	;# 
   275  0212                     	;# 
   276  0212                     	;# 
   277  0213                     	;# 
   278  0213                     	;# 
   279  0214                     	;# 
   280  0214                     	;# 
   281  0215                     	;# 
   282  0215                     	;# 
   283  0215                     	;# 
   284  0216                     	;# 
   285  0216                     	;# 
   286  0217                     	;# 
   287  0217                     	;# 
   288  0391                     	;# 
   289  0392                     	;# 
   290  0393                     	;# 
   291  0394                     	;# 
   292  0395                     	;# 
   293  0396                     	;# 
   294  0498                     	;# 
   295  0498                     	;# 
   296  0499                     	;# 
   297  049A                     	;# 
   298  049B                     	;# 
   299  049B                     	;# 
   300  049C                     	;# 
   301  049E                     	;# 
   302  049F                     	;# 
   303  0611                     	;# 
   304  0612                     	;# 
   305  0613                     	;# 
   306  0613                     	;# 
   307  0614                     	;# 
   308  0615                     	;# 
   309  0616                     	;# 
   310  0616                     	;# 
   311  0617                     	;# 
   312  0618                     	;# 
   313  0619                     	;# 
   314  0619                     	;# 
   315  061A                     	;# 
   316  061B                     	;# 
   317  061C                     	;# 
   318  061C                     	;# 
   319  0691                     	;# 
   320  0692                     	;# 
   321  0693                     	;# 
   322  0694                     	;# 
   323  0695                     	;# 
   324  0F0F                     	;# 
   325  0F10                     	;# 
   326  0F11                     	;# 
   327  0F12                     	;# 
   328  0F13                     	;# 
   329  0F14                     	;# 
   330  0F15                     	;# 
   331  0F16                     	;# 
   332  0F17                     	;# 
   333  0F18                     	;# 
   334  0F19                     	;# 
   335  0F1A                     	;# 
   336  0F1B                     	;# 
   337  0F1C                     	;# 
   338  0F1D                     	;# 
   339  0F1E                     	;# 
   340  0F1F                     	;# 
   341  0F20                     	;# 
   342  0F21                     	;# 
   343  0F22                     	;# 
   344  0F23                     	;# 
   345  0F24                     	;# 
   346  0F25                     	;# 
   347  0F26                     	;# 
   348  0F27                     	;# 
   349  0F28                     	;# 
   350  0F29                     	;# 
   351  0F2A                     	;# 
   352  0F2B                     	;# 
   353  0F2C                     	;# 
   354  0F2D                     	;# 
   355  0F2E                     	;# 
   356  0F2F                     	;# 
   357  0F8C                     	;# 
   358  0F8D                     	;# 
   359  0F91                     	;# 
   360  0F95                     	;# 
   361  0F96                     	;# 
   362  0F97                     	;# 
   363  0F9C                     	;# 
   364  0F9D                     	;# 
   365  0F9E                     	;# 
   366  0FE3                     	;# 
   367  0FE4                     	;# 
   368  0FE5                     	;# 
   369  0FE6                     	;# 
   370  0FE7                     	;# 
   371  0FE8                     	;# 
   372  0FE9                     	;# 
   373  0FEA                     	;# 
   374  0FEB                     	;# 
   375  0FED                     	;# 
   376  0FEE                     	;# 
   377  0FEF                     	;# 
   378  0000                     	;# 
   379  0001                     	;# 
   380  0002                     	;# 
   381  0003                     	;# 
   382  0004                     	;# 
   383  0005                     	;# 
   384  0006                     	;# 
   385  0007                     	;# 
   386  0008                     	;# 
   387  0009                     	;# 
   388  000A                     	;# 
   389  000B                     	;# 
   390  000C                     	;# 
   391  000D                     	;# 
   392  000E                     	;# 
   393  0011                     	;# 
   394  0012                     	;# 
   395  0013                     	;# 
   396  0015                     	;# 
   397  0016                     	;# 
   398  0016                     	;# 
   399  0017                     	;# 
   400  0018                     	;# 
   401  0019                     	;# 
   402  001A                     	;# 
   403  001B                     	;# 
   404  001C                     	;# 
   405  008C                     	;# 
   406  008D                     	;# 
   407  008E                     	;# 
   408  0091                     	;# 
   409  0092                     	;# 
   410  0093                     	;# 
   411  0095                     	;# 
   412  0096                     	;# 
   413  0097                     	;# 
   414  0099                     	;# 
   415  009A                     	;# 
   416  009B                     	;# 
   417  009B                     	;# 
   418  009C                     	;# 
   419  009D                     	;# 
   420  009E                     	;# 
   421  009F                     	;# 
   422  010C                     	;# 
   423  010D                     	;# 
   424  010E                     	;# 
   425  0111                     	;# 
   426  0112                     	;# 
   427  0113                     	;# 
   428  0114                     	;# 
   429  0115                     	;# 
   430  0116                     	;# 
   431  0117                     	;# 
   432  0118                     	;# 
   433  0119                     	;# 
   434  011D                     	;# 
   435  018C                     	;# 
   436  018D                     	;# 
   437  018E                     	;# 
   438  0191                     	;# 
   439  0191                     	;# 
   440  0192                     	;# 
   441  0193                     	;# 
   442  0193                     	;# 
   443  0194                     	;# 
   444  0195                     	;# 
   445  0196                     	;# 
   446  0197                     	;# 
   447  0199                     	;# 
   448  019A                     	;# 
   449  019B                     	;# 
   450  019C                     	;# 
   451  019D                     	;# 
   452  019E                     	;# 
   453  019F                     	;# 
   454  020C                     	;# 
   455  020D                     	;# 
   456  0211                     	;# 
   457  0211                     	;# 
   458  0212                     	;# 
   459  0212                     	;# 
   460  0213                     	;# 
   461  0213                     	;# 
   462  0214                     	;# 
   463  0214                     	;# 
   464  0215                     	;# 
   465  0215                     	;# 
   466  0215                     	;# 
   467  0216                     	;# 
   468  0216                     	;# 
   469  0217                     	;# 
   470  0217                     	;# 
   471  0391                     	;# 
   472  0392                     	;# 
   473  0393                     	;# 
   474  0394                     	;# 
   475  0395                     	;# 
   476  0396                     	;# 
   477  0498                     	;# 
   478  0498                     	;# 
   479  0499                     	;# 
   480  049A                     	;# 
   481  049B                     	;# 
   482  049B                     	;# 
   483  049C                     	;# 
   484  049E                     	;# 
   485  049F                     	;# 
   486  0611                     	;# 
   487  0612                     	;# 
   488  0613                     	;# 
   489  0613                     	;# 
   490  0614                     	;# 
   491  0615                     	;# 
   492  0616                     	;# 
   493  0616                     	;# 
   494  0617                     	;# 
   495  0618                     	;# 
   496  0619                     	;# 
   497  0619                     	;# 
   498  061A                     	;# 
   499  061B                     	;# 
   500  061C                     	;# 
   501  061C                     	;# 
   502  0691                     	;# 
   503  0692                     	;# 
   504  0693                     	;# 
   505  0694                     	;# 
   506  0695                     	;# 
   507  0F0F                     	;# 
   508  0F10                     	;# 
   509  0F11                     	;# 
   510  0F12                     	;# 
   511  0F13                     	;# 
   512  0F14                     	;# 
   513  0F15                     	;# 
   514  0F16                     	;# 
   515  0F17                     	;# 
   516  0F18                     	;# 
   517  0F19                     	;# 
   518  0F1A                     	;# 
   519  0F1B                     	;# 
   520  0F1C                     	;# 
   521  0F1D                     	;# 
   522  0F1E                     	;# 
   523  0F1F                     	;# 
   524  0F20                     	;# 
   525  0F21                     	;# 
   526  0F22                     	;# 
   527  0F23                     	;# 
   528  0F24                     	;# 
   529  0F25                     	;# 
   530  0F26                     	;# 
   531  0F27                     	;# 
   532  0F28                     	;# 
   533  0F29                     	;# 
   534  0F2A                     	;# 
   535  0F2B                     	;# 
   536  0F2C                     	;# 
   537  0F2D                     	;# 
   538  0F2E                     	;# 
   539  0F2F                     	;# 
   540  0F8C                     	;# 
   541  0F8D                     	;# 
   542  0F91                     	;# 
   543  0F95                     	;# 
   544  0F96                     	;# 
   545  0F97                     	;# 
   546  0F9C                     	;# 
   547  0F9D                     	;# 
   548  0F9E                     	;# 
   549  0FE3                     	;# 
   550  0FE4                     	;# 
   551  0FE5                     	;# 
   552  0FE6                     	;# 
   553  0FE7                     	;# 
   554  0FE8                     	;# 
   555  0FE9                     	;# 
   556  0FEA                     	;# 
   557  0FEB                     	;# 
   558  0FED                     	;# 
   559  0FEE                     	;# 
   560  0FEF                     	;# 
   561  0000                     	;# 
   562  0001                     	;# 
   563  0002                     	;# 
   564  0003                     	;# 
   565  0004                     	;# 
   566  0005                     	;# 
   567  0006                     	;# 
   568  0007                     	;# 
   569  0008                     	;# 
   570  0009                     	;# 
   571  000A                     	;# 
   572  000B                     	;# 
   573  000C                     	;# 
   574  000D                     	;# 
   575  000E                     	;# 
   576  0011                     	;# 
   577  0012                     	;# 
   578  0013                     	;# 
   579  0015                     	;# 
   580  0016                     	;# 
   581  0016                     	;# 
   582  0017                     	;# 
   583  0018                     	;# 
   584  0019                     	;# 
   585  001A                     	;# 
   586  001B                     	;# 
   587  001C                     	;# 
   588  008C                     	;# 
   589  008D                     	;# 
   590  008E                     	;# 
   591  0091                     	;# 
   592  0092                     	;# 
   593  0093                     	;# 
   594  0095                     	;# 
   595  0096                     	;# 
   596  0097                     	;# 
   597  0099                     	;# 
   598  009A                     	;# 
   599  009B                     	;# 
   600  009B                     	;# 
   601  009C                     	;# 
   602  009D                     	;# 
   603  009E                     	;# 
   604  009F                     	;# 
   605  010C                     	;# 
   606  010D                     	;# 
   607  010E                     	;# 
   608  0111                     	;# 
   609  0112                     	;# 
   610  0113                     	;# 
   611  0114                     	;# 
   612  0115                     	;# 
   613  0116                     	;# 
   614  0117                     	;# 
   615  0118                     	;# 
   616  0119                     	;# 
   617  011D                     	;# 
   618  018C                     	;# 
   619  018D                     	;# 
   620  018E                     	;# 
   621  0191                     	;# 
   622  0191                     	;# 
   623  0192                     	;# 
   624  0193                     	;# 
   625  0193                     	;# 
   626  0194                     	;# 
   627  0195                     	;# 
   628  0196                     	;# 
   629  0197                     	;# 
   630  0199                     	;# 
   631  019A                     	;# 
   632  019B                     	;# 
   633  019C                     	;# 
   634  019D                     	;# 
   635  019E                     	;# 
   636  019F                     	;# 
   637  020C                     	;# 
   638  020D                     	;# 
   639  0211                     	;# 
   640  0211                     	;# 
   641  0212                     	;# 
   642  0212                     	;# 
   643  0213                     	;# 
   644  0213                     	;# 
   645  0214                     	;# 
   646  0214                     	;# 
   647  0215                     	;# 
   648  0215                     	;# 
   649  0215                     	;# 
   650  0216                     	;# 
   651  0216                     	;# 
   652  0217                     	;# 
   653  0217                     	;# 
   654  0391                     	;# 
   655  0392                     	;# 
   656  0393                     	;# 
   657  0394                     	;# 
   658  0395                     	;# 
   659  0396                     	;# 
   660  0498                     	;# 
   661  0498                     	;# 
   662  0499                     	;# 
   663  049A                     	;# 
   664  049B                     	;# 
   665  049B                     	;# 
   666  049C                     	;# 
   667  049E                     	;# 
   668  049F                     	;# 
   669  0611                     	;# 
   670  0612                     	;# 
   671  0613                     	;# 
   672  0613                     	;# 
   673  0614                     	;# 
   674  0615                     	;# 
   675  0616                     	;# 
   676  0616                     	;# 
   677  0617                     	;# 
   678  0618                     	;# 
   679  0619                     	;# 
   680  0619                     	;# 
   681  061A                     	;# 
   682  061B                     	;# 
   683  061C                     	;# 
   684  061C                     	;# 
   685  0691                     	;# 
   686  0692                     	;# 
   687  0693                     	;# 
   688  0694                     	;# 
   689  0695                     	;# 
   690  0F0F                     	;# 
   691  0F10                     	;# 
   692  0F11                     	;# 
   693  0F12                     	;# 
   694  0F13                     	;# 
   695  0F14                     	;# 
   696  0F15                     	;# 
   697  0F16                     	;# 
   698  0F17                     	;# 
   699  0F18                     	;# 
   700  0F19                     	;# 
   701  0F1A                     	;# 
   702  0F1B                     	;# 
   703  0F1C                     	;# 
   704  0F1D                     	;# 
   705  0F1E                     	;# 
   706  0F1F                     	;# 
   707  0F20                     	;# 
   708  0F21                     	;# 
   709  0F22                     	;# 
   710  0F23                     	;# 
   711  0F24                     	;# 
   712  0F25                     	;# 
   713  0F26                     	;# 
   714  0F27                     	;# 
   715  0F28                     	;# 
   716  0F29                     	;# 
   717  0F2A                     	;# 
   718  0F2B                     	;# 
   719  0F2C                     	;# 
   720  0F2D                     	;# 
   721  0F2E                     	;# 
   722  0F2F                     	;# 
   723  0F8C                     	;# 
   724  0F8D                     	;# 
   725  0F91                     	;# 
   726  0F95                     	;# 
   727  0F96                     	;# 
   728  0F97                     	;# 
   729  0F9C                     	;# 
   730  0F9D                     	;# 
   731  0F9E                     	;# 
   732  0FE3                     	;# 
   733  0FE4                     	;# 
   734  0FE5                     	;# 
   735  0FE6                     	;# 
   736  0FE7                     	;# 
   737  0FE8                     	;# 
   738  0FE9                     	;# 
   739  0FEA                     	;# 
   740  0FEB                     	;# 
   741  0FED                     	;# 
   742  0FEE                     	;# 
   743  0FEF                     	;# 
   744  0000                     	;# 
   745  0001                     	;# 
   746  0002                     	;# 
   747  0003                     	;# 
   748  0004                     	;# 
   749  0005                     	;# 
   750  0006                     	;# 
   751  0007                     	;# 
   752  0008                     	;# 
   753  0009                     	;# 
   754  000A                     	;# 
   755  000B                     	;# 
   756  000C                     	;# 
   757  000D                     	;# 
   758  000E                     	;# 
   759  0011                     	;# 
   760  0012                     	;# 
   761  0013                     	;# 
   762  0015                     	;# 
   763  0016                     	;# 
   764  0016                     	;# 
   765  0017                     	;# 
   766  0018                     	;# 
   767  0019                     	;# 
   768  001A                     	;# 
   769  001B                     	;# 
   770  001C                     	;# 
   771  008C                     	;# 
   772  008D                     	;# 
   773  008E                     	;# 
   774  0091                     	;# 
   775  0092                     	;# 
   776  0093                     	;# 
   777  0095                     	;# 
   778  0096                     	;# 
   779  0097                     	;# 
   780  0099                     	;# 
   781  009A                     	;# 
   782  009B                     	;# 
   783  009B                     	;# 
   784  009C                     	;# 
   785  009D                     	;# 
   786  009E                     	;# 
   787  009F                     	;# 
   788  010C                     	;# 
   789  010D                     	;# 
   790  010E                     	;# 
   791  0111                     	;# 
   792  0112                     	;# 
   793  0113                     	;# 
   794  0114                     	;# 
   795  0115                     	;# 
   796  0116                     	;# 
   797  0117                     	;# 
   798  0118                     	;# 
   799  0119                     	;# 
   800  011D                     	;# 
   801  018C                     	;# 
   802  018D                     	;# 
   803  018E                     	;# 
   804  0191                     	;# 
   805  0191                     	;# 
   806  0192                     	;# 
   807  0193                     	;# 
   808  0193                     	;# 
   809  0194                     	;# 
   810  0195                     	;# 
   811  0196                     	;# 
   812  0197                     	;# 
   813  0199                     	;# 
   814  019A                     	;# 
   815  019B                     	;# 
   816  019C                     	;# 
   817  019D                     	;# 
   818  019E                     	;# 
   819  019F                     	;# 
   820  020C                     	;# 
   821  020D                     	;# 
   822  0211                     	;# 
   823  0211                     	;# 
   824  0212                     	;# 
   825  0212                     	;# 
   826  0213                     	;# 
   827  0213                     	;# 
   828  0214                     	;# 
   829  0214                     	;# 
   830  0215                     	;# 
   831  0215                     	;# 
   832  0215                     	;# 
   833  0216                     	;# 
   834  0216                     	;# 
   835  0217                     	;# 
   836  0217                     	;# 
   837  0391                     	;# 
   838  0392                     	;# 
   839  0393                     	;# 
   840  0394                     	;# 
   841  0395                     	;# 
   842  0396                     	;# 
   843  0498                     	;# 
   844  0498                     	;# 
   845  0499                     	;# 
   846  049A                     	;# 
   847  049B                     	;# 
   848  049B                     	;# 
   849  049C                     	;# 
   850  049E                     	;# 
   851  049F                     	;# 
   852  0611                     	;# 
   853  0612                     	;# 
   854  0613                     	;# 
   855  0613                     	;# 
   856  0614                     	;# 
   857  0615                     	;# 
   858  0616                     	;# 
   859  0616                     	;# 
   860  0617                     	;# 
   861  0618                     	;# 
   862  0619                     	;# 
   863  0619                     	;# 
   864  061A                     	;# 
   865  061B                     	;# 
   866  061C                     	;# 
   867  061C                     	;# 
   868  0691                     	;# 
   869  0692                     	;# 
   870  0693                     	;# 
   871  0694                     	;# 
   872  0695                     	;# 
   873  0F0F                     	;# 
   874  0F10                     	;# 
   875  0F11                     	;# 
   876  0F12                     	;# 
   877  0F13                     	;# 
   878  0F14                     	;# 
   879  0F15                     	;# 
   880  0F16                     	;# 
   881  0F17                     	;# 
   882  0F18                     	;# 
   883  0F19                     	;# 
   884  0F1A                     	;# 
   885  0F1B                     	;# 
   886  0F1C                     	;# 
   887  0F1D                     	;# 
   888  0F1E                     	;# 
   889  0F1F                     	;# 
   890  0F20                     	;# 
   891  0F21                     	;# 
   892  0F22                     	;# 
   893  0F23                     	;# 
   894  0F24                     	;# 
   895  0F25                     	;# 
   896  0F26                     	;# 
   897  0F27                     	;# 
   898  0F28                     	;# 
   899  0F29                     	;# 
   900  0F2A                     	;# 
   901  0F2B                     	;# 
   902  0F2C                     	;# 
   903  0F2D                     	;# 
   904  0F2E                     	;# 
   905  0F2F                     	;# 
   906  0F8C                     	;# 
   907  0F8D                     	;# 
   908  0F91                     	;# 
   909  0F95                     	;# 
   910  0F96                     	;# 
   911  0F97                     	;# 
   912  0F9C                     	;# 
   913  0F9D                     	;# 
   914  0F9E                     	;# 
   915  0FE3                     	;# 
   916  0FE4                     	;# 
   917  0FE5                     	;# 
   918  0FE6                     	;# 
   919  0FE7                     	;# 
   920  0FE8                     	;# 
   921  0FE9                     	;# 
   922  0FEA                     	;# 
   923  0FEB                     	;# 
   924  0FED                     	;# 
   925  0FEE                     	;# 
   926  0FEF                     	;# 
   927                           
   928                           	psect	idataBANK0
   929  064C                     __pidataBANK0:	
   930                           
   931                           ;initializer for _bf
   932  064C  3412               	retlw	18
   933  064D  3434               	retlw	52
   934  064E  3456               	retlw	86
   935  064F  3478               	retlw	120
   936  0650  3412               	retlw	18
   937  0651  3434               	retlw	52
   938  0652  3456               	retlw	86
   939  0653  3478               	retlw	120
   940  000E                     _PORTCbits	set	14
   941  009D                     _ADCON0	set	157
   942  009E                     _ADCON1	set	158
   943  009F                     _ADCON2	set	159
   944  0099                     _OSCCON	set	153
   945  008C                     _TRISAbits	set	140
   946  008D                     _TRISBbits	set	141
   947  008E                     _TRISCbits	set	142
   948  0117                     _FVRCON	set	279
   949  010C                     _LATAbits	set	268
   950  010D                     _LATBbits	set	269
   951  010E                     _LATCbits	set	270
   952  018C                     _ANSELA	set	396
   953  018D                     _ANSELB	set	397
   954  018E                     _ANSELC	set	398
   955                           
   956                           ; #config settings
   957  0000                     
   958                           	psect	cinit
   959  0654                     start_initialization:	
   960  0654                     __initialization:	
   961                           
   962                           ; Initialize objects allocated to BANK0
   963  0654  304C               	movlw	low __pidataBANK0
   964  0655  0084               	movwf	4
   965  0656  3086               	movlw	(high __pidataBANK0)| (0+128)
   966  0657  0085               	movwf	5
   967  0658  3020               	movlw	low __pdataBANK0
   968  0659  0086               	movwf	6
   969  065A  3000               	movlw	high __pdataBANK0
   970  065B  0087               	movwf	7
   971  065C  3008               	movlw	8
   972  065D  3186  2646  3186   	fcall	init_ram
   973  0660                     end_of_initialization:	
   974                           ;End of C runtime variable initialization code
   975                           
   976  0660                     __end_of__initialization:	
   977  0660  0020               	movlb	0
   978  0661  2E62               	ljmp	_main	;jump to C main() function
   979  0662                     __pmaintext:	
   980 ;;
   981 ;;Main: autosize = 0, tempsize = 0, incstack = 0, save=0
   982 ;;
   983 ;; *************** function _main *****************
   984 ;; Defined at:
   985 ;;		line 241 in file "../../../src/main.c"
   986 ;; Parameters:    Size  Location     Type
   987 ;;		None
   988 ;; Auto vars:     Size  Location     Type
   989 ;;  j               1    6[BANK0 ] unsigned char 
   990 ;;  i               1    5[BANK0 ] unsigned char 
   991 ;;  k               1    4[BANK0 ] unsigned char 
   992 ;;  j               1    3[BANK0 ] unsigned char 
   993 ;;  j               1    1[BANK0 ] unsigned char 
   994 ;;  i               1    2[BANK0 ] unsigned char 
   995 ;;  i               1    0[BANK0 ] unsigned char 
   996 ;; Return value:  Size  Location     Type
   997 ;;                  2  280[COMMON] int 
   998 ;; Registers used:
   999 ;;		wreg, fsr1l, fsr1h, status,2, status,0, pclath, cstack
  1000 ;; Tracked objects:
  1001 ;;		On entry : 17F/0
  1002 ;;		On exit  : 1F/0
  1003 ;;		Unchanged: FFE00/0
  1004 ;; Data sizes:     COMMON   BANK0   BANK1   BANK2
  1005 ;;      Params:         0       0       0       0
  1006 ;;      Locals:         0       7       0       0
  1007 ;;      Temps:          0       0       0       0
  1008 ;;      Totals:         0       7       0       0
  1009 ;;Total ram usage:        7 bytes
  1010 ;; Hardware stack levels required when called:    3
  1011 ;; This function calls:
  1012 ;;		_AdcInit
  1013 ;;		_MRF49XA_Reset_Radio
  1014 ;;		_MRF49XA_Init
  1015 ;;		_MRF49XA_TxPacket
  1016 ;;		_SysInitGpio
  1017 ;; This function is called by:
  1018 ;;		Startup code after reset
  1019 ;; This function uses a non-reentrant model
  1020 ;;
  1021                           
  1022                           
  1023                           ;psect for function _main
  1024  0662                     _main:	
  1025                           
  1026                           ;main.c: 258: OSCCON = 0b01111000;
  1027                           
  1028                           ;incstack = 0
  1029                           ; Regs used in _main: [wreg+fsr1l+fsr1h+status,2+status,0+pclath+cstack]
  1030  0662  3078               	movlw	120
  1031  0663  0021               	movlb	1	; select bank1
  1032  0664  0099               	movwf	25	;volatile
  1033                           
  1034                           ;main.c: 259: AdcInit();
  1035  0665  27B8  3186         	fcall	_AdcInit
  1036                           
  1037                           ;main.c: 261: SysInitGpio();
  1038  0667  27C7  3186         	fcall	_SysInitGpio
  1039                           
  1040                           ;main.c: 263: LATCbits.LATC1 = 1;
  1041  0669  0022               	movlb	2	; select bank2
  1042  066A  148E               	bsf	14,1	;volatile
  1043                           
  1044                           ;main.c: 264: LATCbits.LATC2 = 1;
  1045  066B  150E               	bsf	14,2	;volatile
  1046                           
  1047                           ;main.c: 297: MRF49XA_Init();
  1048  066C  2744  3186         	fcall	_MRF49XA_Init
  1049                           
  1050                           ;main.c: 298: for (UI08_t i = 0; i < 250; i++) for(UI08_t j = 0; j < 250; j++) asm("nop"
      +                          );;
  1051  066E  0020               	movlb	0	; select bank0
  1052  066F  01A8               	clrf	main@i
  1053  0670                     l1015:	
  1054  0670  01A9               	clrf	main@j
  1055  0671                     l283:	
  1056  0671  0000               	nop	;# 
  1057  0672  0020               	movlb	0	; select bank0
  1058  0673  30FA               	movlw	250
  1059  0674  0AA9               	incf	main@j,f
  1060  0675  0229               	subwf	main@j,w
  1061  0676  1C03               	skipc
  1062  0677  2E71               	goto	l283
  1063  0678  30FA               	movlw	250
  1064  0679  0AA8               	incf	main@i,f
  1065  067A  0228               	subwf	main@i,w
  1066  067B  1C03               	skipc
  1067  067C  2E70               	goto	l1015
  1068                           
  1069                           ;main.c: 299: for (UI08_t i = 0; i < 250; i++) for(UI08_t j = 0; j < 250; j++) asm("nop"
      +                          );;
  1070  067D  01AA               	clrf	main@i_372
  1071  067E                     l1035:	
  1072  067E  01AB               	clrf	main@j_373
  1073  067F                     l287:	
  1074  067F  0000               	nop	;# 
  1075  0680  0020               	movlb	0	; select bank0
  1076  0681  30FA               	movlw	250
  1077  0682  0AAB               	incf	main@j_373,f
  1078  0683  022B               	subwf	main@j_373,w
  1079  0684  1C03               	skipc
  1080  0685  2E7F               	goto	l287
  1081  0686  30FA               	movlw	250
  1082  0687  0AAA               	incf	main@i_372,f
  1083  0688  022A               	subwf	main@i_372,w
  1084  0689  1C03               	skipc
  1085  068A  2E7E               	goto	l1035
  1086                           
  1087                           ;main.c: 300: MRF49XA_Reset_Radio();
  1088  068B  26A8  3186         	fcall	_MRF49XA_Reset_Radio
  1089  068D                     l1051:	
  1090                           
  1091                           ;main.c: 302: {
  1092                           ;main.c: 303: MRF49XA_TxPacket(bf, sizeof(bf));
  1093  068D  3008               	movlw	8
  1094  068E  00F4               	movwf	?_MRF49XA_TxPacket
  1095  068F  3020               	movlw	_bf& (0+255)
  1096  0690  26BF  3186         	fcall	_MRF49XA_TxPacket
  1097                           
  1098                           ;main.c: 304: for (UI08_t k = 0; k < 5; k++)
  1099  0692  0020               	movlb	0	; select bank0
  1100  0693  01AC               	clrf	main@k
  1101  0694                     l1059:	
  1102                           
  1103                           ;main.c: 305: for (UI08_t i = 0; i < 250; i++) for(UI08_t j = 0; j < 250; j++) asm("nop"
      +                          );;
  1104  0694  01AD               	clrf	main@i_375
  1105  0695                     l1065:	
  1106  0695  01AE               	clrf	main@j_376
  1107  0696                     l294:	
  1108  0696  0000               	nop	;# 
  1109  0697  0020               	movlb	0	; select bank0
  1110  0698  30FA               	movlw	250
  1111  0699  0AAE               	incf	main@j_376,f
  1112  069A  022E               	subwf	main@j_376,w
  1113  069B  1C03               	skipc
  1114  069C  2E96               	goto	l294
  1115  069D  30FA               	movlw	250
  1116  069E  0AAD               	incf	main@i_375,f
  1117  069F  022D               	subwf	main@i_375,w
  1118  06A0  1C03               	skipc
  1119  06A1  2E95               	goto	l1065
  1120  06A2  3005               	movlw	5
  1121  06A3  0AAC               	incf	main@k,f
  1122  06A4  022C               	subwf	main@k,w
  1123  06A5  1803               	btfsc	3,0
  1124  06A6  2E8D               	goto	l1051
  1125  06A7  2E94               	goto	l1059
  1126  06A8                     __end_of_main:	
  1127  06A8                     __ptext4:	
  1128 ;; *************** function _MRF49XA_Reset_Radio *****************
  1129 ;; Defined at:
  1130 ;;		line 96 in file "../../../src/devices/mrf49xa.c"
  1131 ;; Parameters:    Size  Location     Type
  1132 ;;		None
  1133 ;; Auto vars:     Size  Location     Type
  1134 ;;		None
  1135 ;; Return value:  Size  Location     Type
  1136 ;;		None               void
  1137 ;; Registers used:
  1138 ;;		wreg, status,2, status,0, pclath, cstack
  1139 ;; Tracked objects:
  1140 ;;		On entry : 1F/0
  1141 ;;		On exit  : 1F/2
  1142 ;;		Unchanged: FFFE0/0
  1143 ;; Data sizes:     COMMON   BANK0   BANK1   BANK2
  1144 ;;      Params:         0       0       0       0
  1145 ;;      Locals:         0       0       0       0
  1146 ;;      Temps:          0       0       0       0
  1147 ;;      Totals:         0       0       0       0
  1148 ;;Total ram usage:        0 bytes
  1149 ;; Hardware stack levels used:    1
  1150 ;; Hardware stack levels required when called:    2
  1151 ;; This function calls:
  1152 ;;		_SPI_Command
  1153 ;; This function is called by:
  1154 ;;		_main
  1155 ;; This function uses a non-reentrant model
  1156 ;;
  1157                           
  1158                           
  1159                           ;psect for function _MRF49XA_Reset_Radio
  1160  06A8                     _MRF49XA_Reset_Radio:	
  1161                           
  1162                           ;mrf49xa.c: 97: SPI_Command(0x8200);
  1163                           
  1164                           ;incstack = 0
  1165                           ; Regs used in _MRF49XA_Reset_Radio: [wreg+status,2+status,0+pclath+cstack]
  1166  06A8  27EC  3186         	fcall	PL10	;call to abstracted procedure
  1167  06AA  27AF  3186         	fcall	_SPI_Command
  1168                           
  1169                           ;mrf49xa.c: 98: SPI_Command(0xCA81);
  1170  06AC  27E7  3186         	fcall	PL8	;call to abstracted procedure
  1171  06AE  27AF  3186         	fcall	_SPI_Command
  1172                           
  1173                           ;mrf49xa.c: 99: SPI_Command(0x8000 | 0x0008 | 0x0020);
  1174  06B0  27F6  3186         	fcall	PL14	;call to abstracted procedure
  1175  06B2  27AF  3186         	fcall	_SPI_Command
  1176                           
  1177                           ;mrf49xa.c: 100: SPI_Command(0x8200 | 0x0080);
  1178  06B4  27FB  3186         	fcall	PL16	;call to abstracted procedure
  1179  06B6  27AF  3186         	fcall	_SPI_Command
  1180                           
  1181                           ;mrf49xa.c: 101: SPI_Command(0x8000 | 0x0008 | 0x0020 | 0x0040);
  1182  06B8  27E2  3186         	fcall	PL6	;call to abstracted procedure
  1183  06BA  27AF  3186         	fcall	_SPI_Command
  1184                           
  1185                           ;mrf49xa.c: 102: SPI_Command(0xCA81 | 0x0002);
  1186  06BC  27DD  3186         	fcall	PL4	;call to abstracted procedure
  1187  06BE  2FAF               	ljmp	l903
  1188  06BF                     __end_of_MRF49XA_Reset_Radio:	
  1189  06BF                     __ptext2:	
  1190 ;; *************** function _MRF49XA_TxPacket *****************
  1191 ;; Defined at:
  1192 ;;		line 148 in file "../../../src/devices/mrf49xa.c"
  1193 ;; Parameters:    Size  Location     Type
  1194 ;;  data            1    wreg     PTR unsigned char 
  1195 ;;		 -> bf(8), 
  1196 ;;  size            1    4[COMMON] unsigned char 
  1197 ;; Auto vars:     Size  Location     Type
  1198 ;;  data            1    7[COMMON] PTR unsigned char 
  1199 ;;		 -> bf(8), 
  1200 ;;  i               1    8[COMMON] unsigned char 
  1201 ;;  crc             1    6[COMMON] unsigned char 
  1202 ;; Return value:  Size  Location     Type
  1203 ;;		None               void
  1204 ;; Registers used:
  1205 ;;		wreg, fsr1l, fsr1h, status,2, status,0, pclath, cstack
  1206 ;; Tracked objects:
  1207 ;;		On entry : 1D/2
  1208 ;;		On exit  : 1F/2
  1209 ;;		Unchanged: FFFE0/0
  1210 ;; Data sizes:     COMMON   BANK0   BANK1   BANK2
  1211 ;;      Params:         1       0       0       0
  1212 ;;      Locals:         3       0       0       0
  1213 ;;      Temps:          1       0       0       0
  1214 ;;      Totals:         5       0       0       0
  1215 ;;Total ram usage:        5 bytes
  1216 ;; Hardware stack levels used:    1
  1217 ;; Hardware stack levels required when called:    2
  1218 ;; This function calls:
  1219 ;;		_SPI_Write
  1220 ;;		_SPI_Command
  1221 ;; This function is called by:
  1222 ;;		_main
  1223 ;; This function uses a non-reentrant model
  1224 ;;
  1225                           
  1226                           
  1227                           ;psect for function _MRF49XA_TxPacket
  1228  06BF                     _MRF49XA_TxPacket:	
  1229                           
  1230                           ;incstack = 0
  1231                           ; Regs used in _MRF49XA_TxPacket: [wreg+fsr1l+fsr1h+status,2+status,0+pclath+cstack]
  1232                           ;MRF49XA_TxPacket@data stored from wreg
  1233  06BF  00F7               	movwf	MRF49XA_TxPacket@data
  1234  06C0  3000               	movlw	0
  1235                           
  1236                           ;mrf49xa.c: 149: UI08_t i, crc = 0;
  1237  06C1  01F6               	clrf	MRF49XA_TxPacket@crc
  1238                           
  1239                           ;mrf49xa.c: 151: SPI_Command(0x8200);
  1240  06C2  00F2               	movwf	?_SPI_Command
  1241  06C3  3082               	movlw	130
  1242  06C4  00F3               	movwf	?_SPI_Command+1
  1243  06C5  27AF  3186         	fcall	_SPI_Command
  1244                           
  1245                           ;mrf49xa.c: 152: SPI_Command(0x8000 | 0x0008 | 0x0020 | 0x0080);
  1246  06C7  30A8               	movlw	168
  1247  06C8  00F2               	movwf	?_SPI_Command
  1248  06C9  3080               	movlw	128
  1249  06CA  00F3               	movwf	?_SPI_Command+1
  1250  06CB  27AF  3186         	fcall	_SPI_Command
  1251                           
  1252                           ;mrf49xa.c: 153: SPI_Command(0x8200 |0x0020);
  1253  06CD  27F1  3186         	fcall	PL12	;call to abstracted procedure
  1254  06CF  27AF  3186         	fcall	_SPI_Command
  1255                           
  1256                           ;mrf49xa.c: 155: LATCbits.LATC6 = 0;
  1257  06D1  130E               	bcf	14,6	;volatile
  1258  06D2                     l170:	
  1259  06D2  0020               	movlb	0	; select bank0
  1260  06D3  1E8E               	btfss	14,5	;volatile
  1261  06D4  2ED2               	goto	l170
  1262  06D5  30B8               	movlw	184
  1263  06D6  2732  3186         	fcall	_SPI_Write
  1264  06D8  30AA               	movlw	170
  1265  06D9  2732  3186         	fcall	_SPI_Write
  1266  06DB                     l175:	
  1267  06DB  0020               	movlb	0	; select bank0
  1268  06DC  1E8E               	btfss	14,5	;volatile
  1269  06DD  2EDB               	goto	l175
  1270  06DE  30AA               	movlw	170
  1271  06DF  2732  3186         	fcall	_SPI_Write
  1272  06E1                     l180:	
  1273  06E1  0020               	movlb	0	; select bank0
  1274  06E2  1E8E               	btfss	14,5	;volatile
  1275  06E3  2EE1               	goto	l180
  1276  06E4  302D               	movlw	45
  1277  06E5  2732  3186         	fcall	_SPI_Write
  1278  06E7                     l185:	
  1279  06E7  0020               	movlb	0	; select bank0
  1280  06E8  1E8E               	btfss	14,5	;volatile
  1281  06E9  2EE7               	goto	l185
  1282  06EA  30D4               	movlw	212
  1283  06EB  2732  3186         	fcall	_SPI_Write
  1284  06ED                     l190:	
  1285  06ED  0020               	movlb	0	; select bank0
  1286  06EE  1E8E               	btfss	14,5	;volatile
  1287  06EF  2EED               	goto	l190
  1288  06F0  0A74               	incf	MRF49XA_TxPacket@size,w
  1289  06F1  2732  3186         	fcall	_SPI_Write
  1290                           
  1291                           ;mrf49xa.c: 164: for (i = 0; i < size; i++)
  1292  06F3  01F8               	clrf	MRF49XA_TxPacket@i
  1293  06F4                     l987:	
  1294  06F4  0874               	movf	MRF49XA_TxPacket@size,w
  1295  06F5  0278               	subwf	MRF49XA_TxPacket@i,w
  1296  06F6  1803               	btfsc	3,0
  1297  06F7  2F06               	goto	l203
  1298  06F8                     l197:	
  1299  06F8  0020               	movlb	0	; select bank0
  1300  06F9  1E8E               	btfss	14,5	;volatile
  1301  06FA  2EF8               	goto	l197
  1302                           
  1303                           ;mrf49xa.c: 167: SPI_Write(data[i]);
  1304  06FB  0878               	movf	MRF49XA_TxPacket@i,w
  1305  06FC  27D7  3186         	fcall	PL2	;call to abstracted procedure
  1306  06FE  2732  3186         	fcall	_SPI_Write
  1307                           
  1308                           ;mrf49xa.c: 168: crc = crc ^ data[i];
  1309  0700  0878               	movf	MRF49XA_TxPacket@i,w
  1310  0701  27D7  3186         	fcall	PL2	;call to abstracted procedure
  1311  0703  06F6               	xorwf	MRF49XA_TxPacket@crc,f
  1312  0704  0AF8               	incf	MRF49XA_TxPacket@i,f
  1313  0705  2EF4               	goto	l987
  1314  0706                     l203:	
  1315  0706  0020               	movlb	0	; select bank0
  1316  0707  1E8E               	btfss	14,5	;volatile
  1317  0708  2F06               	goto	l203
  1318  0709  0876               	movf	MRF49XA_TxPacket@crc,w
  1319  070A  2732  3186         	fcall	_SPI_Write
  1320  070C                     l208:	
  1321  070C  0020               	movlb	0	; select bank0
  1322  070D  1E8E               	btfss	14,5	;volatile
  1323  070E  2F0C               	goto	l208
  1324  070F  3000               	movlw	0
  1325  0710  2732  3186         	fcall	_SPI_Write
  1326  0712                     l213:	
  1327  0712  0020               	movlb	0	; select bank0
  1328  0713  1E8E               	btfss	14,5	;volatile
  1329  0714  2F12               	goto	l213
  1330  0715  3000               	movlw	0
  1331  0716  2732  3186         	fcall	_SPI_Write
  1332  0718                     l218:	
  1333  0718  0020               	movlb	0	; select bank0
  1334  0719  1E8E               	btfss	14,5	;volatile
  1335  071A  2F18               	goto	l218
  1336  071B  3000               	movlw	0
  1337  071C  2732  3186         	fcall	_SPI_Write
  1338  071E                     l223:	
  1339  071E  0020               	movlb	0	; select bank0
  1340  071F  1E8E               	btfss	14,5	;volatile
  1341  0720  2F1E               	goto	l223
  1342                           
  1343                           ;mrf49xa.c: 177: LATCbits.LATC6 = 1;
  1344  0721  0022               	movlb	2	; select bank2
  1345  0722  170E               	bsf	14,6	;volatile
  1346                           
  1347                           ;mrf49xa.c: 179: SPI_Command(0xCA81);
  1348  0723  27E7  3186         	fcall	PL8	;call to abstracted procedure
  1349  0725  27AF  3186         	fcall	_SPI_Command
  1350                           
  1351                           ;mrf49xa.c: 180: SPI_Command(0x8200 | 0x0080);
  1352  0727  27FB  3186         	fcall	PL16	;call to abstracted procedure
  1353  0729  27AF  3186         	fcall	_SPI_Command
  1354                           
  1355                           ;mrf49xa.c: 181: SPI_Command(0x8000 | 0x0008 | 0x0020 | 0x0040);
  1356  072B  27E2  3186         	fcall	PL6	;call to abstracted procedure
  1357  072D  27AF  3186         	fcall	_SPI_Command
  1358                           
  1359                           ;mrf49xa.c: 182: SPI_Command(0xCA81 | 0x0002);
  1360  072F  27DD  3186         	fcall	PL4	;call to abstracted procedure
  1361  0731  2FAF               	ljmp	l903
  1362  0732                     __end_of_MRF49XA_TxPacket:	
  1363  0732                     __ptext6:	
  1364 ;; *************** function _SPI_Write *****************
  1365 ;; Defined at:
  1366 ;;		line 42 in file "../../../src/devices/mrf49xa.c"
  1367 ;; Parameters:    Size  Location     Type
  1368 ;;  data            1    wreg     unsigned char 
  1369 ;; Auto vars:     Size  Location     Type
  1370 ;;  data            1    0[COMMON] unsigned char 
  1371 ;;  i               1    1[COMMON] unsigned char 
  1372 ;; Return value:  Size  Location     Type
  1373 ;;		None               void
  1374 ;; Registers used:
  1375 ;;		wreg, status,2, status,0
  1376 ;; Tracked objects:
  1377 ;;		On entry : 1D/0
  1378 ;;		On exit  : 1F/2
  1379 ;;		Unchanged: FFFE0/0
  1380 ;; Data sizes:     COMMON   BANK0   BANK1   BANK2
  1381 ;;      Params:         0       0       0       0
  1382 ;;      Locals:         2       0       0       0
  1383 ;;      Temps:          0       0       0       0
  1384 ;;      Totals:         2       0       0       0
  1385 ;;Total ram usage:        2 bytes
  1386 ;; Hardware stack levels used:    1
  1387 ;; This function calls:
  1388 ;;		Nothing
  1389 ;; This function is called by:
  1390 ;;		_SPI_Command
  1391 ;;		_MRF49XA_TxPacket
  1392 ;; This function uses a non-reentrant model
  1393 ;;
  1394                           
  1395                           
  1396                           ;psect for function _SPI_Write
  1397  0732                     _SPI_Write:	
  1398                           
  1399                           ;incstack = 0
  1400                           ; Regs used in _SPI_Write: [wreg+status,2+status,0]
  1401                           ;SPI_Write@data stored from wreg
  1402  0732  00F0               	movwf	SPI_Write@data
  1403                           
  1404                           ;mrf49xa.c: 44: LATCbits.LATC7 = 0;
  1405  0733  0022               	movlb	2	; select bank2
  1406  0734  138E               	bcf	14,7	;volatile
  1407                           
  1408                           ;mrf49xa.c: 60: UI08_t i;
  1409                           ;mrf49xa.c: 61: for (i = 0; i < 8; i++)
  1410  0735  01F1               	clrf	SPI_Write@i
  1411  0736                     l142:	
  1412                           
  1413                           ;mrf49xa.c: 62: {
  1414                           ;mrf49xa.c: 63: if (data & 0x80)
  1415  0736  1FF0               	btfss	SPI_Write@data,7
  1416  0737  2F3A               	goto	l144
  1417                           
  1418                           ;mrf49xa.c: 64: {
  1419                           ;mrf49xa.c: 65: LATBbits.LATB7 = 1;
  1420  0738  178D               	bsf	13,7	;volatile
  1421                           
  1422                           ;mrf49xa.c: 66: }
  1423  0739  2F3B               	goto	l145
  1424  073A                     l144:	
  1425                           
  1426                           ;mrf49xa.c: 67: else
  1427                           ;mrf49xa.c: 68: {
  1428                           ;mrf49xa.c: 69: LATBbits.LATB7 = 0;
  1429  073A  138D               	bcf	13,7	;volatile
  1430  073B                     l145:	
  1431                           
  1432                           ;mrf49xa.c: 70: }
  1433                           ;mrf49xa.c: 72: LATCbits.LATC7 = 1;
  1434  073B  178E               	bsf	14,7	;volatile
  1435                           
  1436                           ;mrf49xa.c: 73: data = data << 1;
  1437  073C  35F0               	lslf	SPI_Write@data,f
  1438                           
  1439                           ;mrf49xa.c: 74: LATCbits.LATC7 = 0;
  1440  073D  138E               	bcf	14,7	;volatile
  1441  073E  3008               	movlw	8
  1442  073F  0AF1               	incf	SPI_Write@i,f
  1443  0740  0271               	subwf	SPI_Write@i,w
  1444  0741  1803               	btfsc	3,0
  1445  0742  0008               	return
  1446  0743  2F36               	goto	l142
  1447  0744                     __end_of_SPI_Write:	
  1448  0744                     __ptext3:	
  1449 ;; *************** function _MRF49XA_Init *****************
  1450 ;; Defined at:
  1451 ;;		line 106 in file "../../../src/devices/mrf49xa.c"
  1452 ;; Parameters:    Size  Location     Type
  1453 ;;		None
  1454 ;; Auto vars:     Size  Location     Type
  1455 ;;  j               1    5[COMMON] unsigned char 
  1456 ;;  i               1    4[COMMON] unsigned char 
  1457 ;; Return value:  Size  Location     Type
  1458 ;;		None               void
  1459 ;; Registers used:
  1460 ;;		wreg, status,2, status,0, pclath, cstack
  1461 ;; Tracked objects:
  1462 ;;		On entry : 17F/2
  1463 ;;		On exit  : 1F/2
  1464 ;;		Unchanged: FFE00/0
  1465 ;; Data sizes:     COMMON   BANK0   BANK1   BANK2
  1466 ;;      Params:         0       0       0       0
  1467 ;;      Locals:         2       0       0       0
  1468 ;;      Temps:          0       0       0       0
  1469 ;;      Totals:         2       0       0       0
  1470 ;;Total ram usage:        2 bytes
  1471 ;; Hardware stack levels used:    1
  1472 ;; Hardware stack levels required when called:    2
  1473 ;; This function calls:
  1474 ;;		_SPI_Command
  1475 ;; This function is called by:
  1476 ;;		_main
  1477 ;; This function uses a non-reentrant model
  1478 ;;
  1479                           
  1480                           
  1481                           ;psect for function _MRF49XA_Init
  1482  0744                     _MRF49XA_Init:	
  1483                           
  1484                           ;mrf49xa.c: 108: UI08_t i, j;
  1485                           ;mrf49xa.c: 111: LATAbits.LATA4 = 0;
  1486                           
  1487                           ;incstack = 0
  1488                           ; Regs used in _MRF49XA_Init: [wreg+status,2+status,0+pclath+cstack]
  1489  0744  120C               	bcf	12,4	;volatile
  1490  0745  0000               	nop	;# 
  1491                           
  1492                           ;mrf49xa.c: 113: LATAbits.LATA4 = 1;
  1493  0746  0022               	movlb	2	; select bank2
  1494  0747  160C               	bsf	12,4	;volatile
  1495                           
  1496                           ;mrf49xa.c: 118: for (i = 0; i < 250; i++) for (j = 0; j < 250; j++) asm ("nop");
  1497  0748  01F4               	clrf	MRF49XA_Init@i
  1498  0749                     l919:	
  1499  0749  01F5               	clrf	MRF49XA_Init@j
  1500  074A                     l160:	
  1501  074A  0000               	nop	;# 
  1502  074B  30FA               	movlw	250
  1503  074C  0AF5               	incf	MRF49XA_Init@j,f
  1504  074D  0275               	subwf	MRF49XA_Init@j,w
  1505  074E  1C03               	skipc
  1506  074F  2F4A               	goto	l160
  1507  0750  30FA               	movlw	250
  1508  0751  0AF4               	incf	MRF49XA_Init@i,f
  1509  0752  0274               	subwf	MRF49XA_Init@i,w
  1510  0753  1C03               	skipc
  1511  0754  2F49               	goto	l919
  1512                           
  1513                           ;mrf49xa.c: 121: SPI_Command(0xCA81);
  1514  0755  3081               	movlw	129
  1515  0756  00F2               	movwf	?_SPI_Command
  1516  0757  30CA               	movlw	202
  1517  0758  00F3               	movwf	?_SPI_Command+1
  1518  0759  27AF  3186         	fcall	_SPI_Command
  1519                           
  1520                           ;mrf49xa.c: 122: SPI_Command(0xCA81 | 0x0002);
  1521  075B  27DD  3186         	fcall	PL4	;call to abstracted procedure
  1522  075D  27AF  3186         	fcall	_SPI_Command
  1523                           
  1524                           ;mrf49xa.c: 123: SPI_Command(0x8000 | 0x0008 | 0x0020);
  1525  075F  27F6  3186         	fcall	PL14	;call to abstracted procedure
  1526  0761  27AF  3186         	fcall	_SPI_Command
  1527                           
  1528                           ;mrf49xa.c: 124: SPI_Command(0xC4D7);
  1529  0763  30D7               	movlw	215
  1530  0764  00F2               	movwf	?_SPI_Command
  1531  0765  30C4               	movlw	196
  1532  0766  00F3               	movwf	?_SPI_Command+1
  1533  0767  27AF  3186         	fcall	_SPI_Command
  1534                           
  1535                           ;mrf49xa.c: 125: SPI_Command(0xA860);
  1536  0769  3060               	movlw	96
  1537  076A  00F2               	movwf	?_SPI_Command
  1538  076B  30A8               	movlw	168
  1539  076C  00F3               	movwf	?_SPI_Command+1
  1540  076D  27AF  3186         	fcall	_SPI_Command
  1541                           
  1542                           ;mrf49xa.c: 126: SPI_Command(0xC6A3);
  1543  076F  30A3               	movlw	163
  1544  0770  00F2               	movwf	?_SPI_Command
  1545  0771  30C6               	movlw	198
  1546  0772  00F3               	movwf	?_SPI_Command+1
  1547  0773  27AF  3186         	fcall	_SPI_Command
  1548                           
  1549                           ;mrf49xa.c: 127: SPI_Command(0x8200);
  1550  0775  27EC  3186         	fcall	PL10	;call to abstracted procedure
  1551  0777  27AF  3186         	fcall	_SPI_Command
  1552                           
  1553                           ;mrf49xa.c: 128: SPI_Command((0x9460 | 0x0000 | 0x0000));
  1554  0779  3060               	movlw	96
  1555  077A  00F2               	movwf	?_SPI_Command
  1556  077B  3094               	movlw	148
  1557  077C  00F3               	movwf	?_SPI_Command+1
  1558  077D  27AF  3186         	fcall	_SPI_Command
  1559                           
  1560                           ;mrf49xa.c: 129: SPI_Command(0x9890);
  1561  077F  3090               	movlw	144
  1562  0780  00F2               	movwf	?_SPI_Command
  1563  0781  3098               	movlw	152
  1564  0782  00F3               	movwf	?_SPI_Command+1
  1565  0783  27AF  3186         	fcall	_SPI_Command
  1566                           
  1567                           ;mrf49xa.c: 130: SPI_Command(0xC2AC);
  1568  0785  30AC               	movlw	172
  1569  0786  00F2               	movwf	?_SPI_Command
  1570  0787  30C2               	movlw	194
  1571  0788  00F3               	movwf	?_SPI_Command+1
  1572  0789  27AF  3186         	fcall	_SPI_Command
  1573                           
  1574                           ;mrf49xa.c: 131: SPI_Command(0x8200 | 0x0020);
  1575  078B  27F1  3186         	fcall	PL12	;call to abstracted procedure
  1576  078D  27AF  3186         	fcall	_SPI_Command
  1577                           
  1578                           ;mrf49xa.c: 136: for (i = 0; i < 250; i++) for (j = 0; j < 250; j++) asm ("nop");
  1579  078F  01F4               	clrf	MRF49XA_Init@i
  1580  0790                     l941:	
  1581  0790  01F5               	clrf	MRF49XA_Init@j
  1582  0791                     l164:	
  1583  0791  0000               	nop	;# 
  1584  0792  30FA               	movlw	250
  1585  0793  0AF5               	incf	MRF49XA_Init@j,f
  1586  0794  0275               	subwf	MRF49XA_Init@j,w
  1587  0795  1C03               	skipc
  1588  0796  2F91               	goto	l164
  1589  0797  30FA               	movlw	250
  1590  0798  0AF4               	incf	MRF49XA_Init@i,f
  1591  0799  0274               	subwf	MRF49XA_Init@i,w
  1592  079A  1C03               	skipc
  1593  079B  2F90               	goto	l941
  1594                           
  1595                           ;mrf49xa.c: 139: SPI_Command(0x8200 | 0x0080);
  1596  079C  3080               	movlw	128
  1597  079D  00F2               	movwf	?_SPI_Command
  1598  079E  3082               	movlw	130
  1599  079F  00F3               	movwf	?_SPI_Command+1
  1600  07A0  27AF  3186         	fcall	_SPI_Command
  1601                           
  1602                           ;mrf49xa.c: 140: SPI_Command(0x8000 | 0x0008 | 0x0020 | 0x0040);
  1603  07A2  27E2  3186         	fcall	PL6	;call to abstracted procedure
  1604  07A4  27AF  3186         	fcall	_SPI_Command
  1605                           
  1606                           ;mrf49xa.c: 141: SPI_Command(0xCA81);
  1607  07A6  27E7  3186         	fcall	PL8	;call to abstracted procedure
  1608  07A8  27AF  3186         	fcall	_SPI_Command
  1609                           
  1610                           ;mrf49xa.c: 142: SPI_Command(0xCA81 | 0x0002);
  1611  07AA  27DD  3186         	fcall	PL4	;call to abstracted procedure
  1612  07AC  27AF               	fcall	_SPI_Command
  1613                           
  1614                           ;mrf49xa.c: 144: LATCbits.LATC4 = 1;
  1615  07AD  160E               	bsf	14,4	;volatile
  1616  07AE  0008               	return
  1617  07AF                     __end_of_MRF49XA_Init:	
  1618  07AF                     __ptext5:	
  1619 ;; *************** function _SPI_Command *****************
  1620 ;; Defined at:
  1621 ;;		line 80 in file "../../../src/devices/mrf49xa.c"
  1622 ;; Parameters:    Size  Location     Type
  1623 ;;  cmd             2    2[COMMON] unsigned int 
  1624 ;; Auto vars:     Size  Location     Type
  1625 ;;		None
  1626 ;; Return value:  Size  Location     Type
  1627 ;;		None               void
  1628 ;; Registers used:
  1629 ;;		wreg, status,2, status,0, pclath, cstack
  1630 ;; Tracked objects:
  1631 ;;		On entry : 0/2
  1632 ;;		On exit  : 1F/2
  1633 ;;		Unchanged: FFFE0/0
  1634 ;; Data sizes:     COMMON   BANK0   BANK1   BANK2
  1635 ;;      Params:         2       0       0       0
  1636 ;;      Locals:         0       0       0       0
  1637 ;;      Temps:          0       0       0       0
  1638 ;;      Totals:         2       0       0       0
  1639 ;;Total ram usage:        2 bytes
  1640 ;; Hardware stack levels used:    1
  1641 ;; Hardware stack levels required when called:    1
  1642 ;; This function calls:
  1643 ;;		_SPI_Write
  1644 ;; This function is called by:
  1645 ;;		_MRF49XA_Reset_Radio
  1646 ;;		_MRF49XA_Init
  1647 ;;		_MRF49XA_TxPacket
  1648 ;; This function uses a non-reentrant model
  1649 ;;
  1650                           
  1651                           
  1652                           ;psect for function _SPI_Command
  1653  07AF                     _SPI_Command:	
  1654  07AF                     l903:	
  1655                           ;incstack = 0
  1656                           ; Regs used in _SPI_Command: [wreg+status,2+status,0+pclath+cstack]
  1657                           
  1658                           
  1659                           ;mrf49xa.c: 81: LATCbits.LATC6 = 0;
  1660  07AF  0022               	movlb	2	; select bank2
  1661  07B0  130E               	bcf	14,6	;volatile
  1662                           
  1663                           ;mrf49xa.c: 83: SPI_Write((cmd & 0xFF00) >> 8);
  1664  07B1  0873               	movf	SPI_Command@cmd+1,w
  1665  07B2  2732  3186         	fcall	_SPI_Write
  1666                           
  1667                           ;mrf49xa.c: 84: SPI_Write((cmd & 0x00FF));
  1668  07B4  0872               	movf	SPI_Command@cmd,w
  1669  07B5  2732               	fcall	_SPI_Write
  1670                           
  1671                           ;mrf49xa.c: 86: LATCbits.LATC6 = 1;
  1672  07B6  170E               	bsf	14,6	;volatile
  1673  07B7  0008               	return
  1674  07B8                     __end_of_SPI_Command:	
  1675  07B8                     __ptext7:	
  1676 ;; *************** function _AdcInit *****************
  1677 ;; Defined at:
  1678 ;;		line 4 in file "../../../src/bsp/pic16/adc16.c"
  1679 ;; Parameters:    Size  Location     Type
  1680 ;;		None
  1681 ;; Auto vars:     Size  Location     Type
  1682 ;;		None
  1683 ;; Return value:  Size  Location     Type
  1684 ;;		None               void
  1685 ;; Registers used:
  1686 ;;		wreg, status,2
  1687 ;; Tracked objects:
  1688 ;;		On entry : 17F/1
  1689 ;;		On exit  : 17F/1
  1690 ;;		Unchanged: FFE80/0
  1691 ;; Data sizes:     COMMON   BANK0   BANK1   BANK2
  1692 ;;      Params:         0       0       0       0
  1693 ;;      Locals:         0       0       0       0
  1694 ;;      Temps:          0       0       0       0
  1695 ;;      Totals:         0       0       0       0
  1696 ;;Total ram usage:        0 bytes
  1697 ;; Hardware stack levels used:    1
  1698 ;; This function calls:
  1699 ;;		Nothing
  1700 ;; This function is called by:
  1701 ;;		_main
  1702 ;; This function uses a non-reentrant model
  1703 ;;
  1704                           
  1705                           
  1706                           ;psect for function _AdcInit
  1707  07B8                     _AdcInit:	
  1708                           
  1709                           ;adc16.c: 5: ANSELA = 0;
  1710                           
  1711                           ;incstack = 0
  1712                           ; Regs used in _AdcInit: [wreg+status,2]
  1713  07B8  0023               	movlb	3	; select bank3
  1714  07B9  018C               	clrf	12	;volatile
  1715                           
  1716                           ;adc16.c: 6: ANSELB = 0;
  1717  07BA  018D               	clrf	13	;volatile
  1718                           
  1719                           ;adc16.c: 7: ANSELC = 0;
  1720  07BB  018E               	clrf	14	;volatile
  1721                           
  1722                           ;adc16.c: 9: FVRCON = 0b11100001;
  1723  07BC  30E1               	movlw	225
  1724  07BD  0022               	movlb	2	; select bank2
  1725  07BE  0097               	movwf	23	;volatile
  1726                           
  1727                           ;adc16.c: 11: ADCON2 = 0b00000000;
  1728  07BF  0021               	movlb	1	; select bank1
  1729  07C0  019F               	clrf	31	;volatile
  1730                           
  1731                           ;adc16.c: 12: ADCON1 = 0b11110000;
  1732  07C1  30F0               	movlw	240
  1733  07C2  009E               	movwf	30	;volatile
  1734                           
  1735                           ;adc16.c: 13: ADCON0 = 0b00000000;
  1736  07C3  019D               	clrf	29	;volatile
  1737                           
  1738                           ;adc16.c: 15: ADCON0 = 0b00010011;
  1739  07C4  3013               	movlw	19
  1740  07C5  009D               	movwf	29	;volatile
  1741  07C6  0008               	return
  1742  07C7                     __end_of_AdcInit:	
  1743  007E                     btemp	set	126	;btemp
  1744  007E                     wtemp0	set	126
  1745  07C7                     __ptext1:	
  1746 ;; *************** function _SysInitGpio *****************
  1747 ;; Defined at:
  1748 ;;		line 60 in file "../../../src/main.c"
  1749 ;; Parameters:    Size  Location     Type
  1750 ;;		None
  1751 ;; Auto vars:     Size  Location     Type
  1752 ;;		None
  1753 ;; Return value:  Size  Location     Type
  1754 ;;		None               void
  1755 ;; Registers used:
  1756 ;;		None
  1757 ;; Tracked objects:
  1758 ;;		On entry : 17F/1
  1759 ;;		On exit  : 17F/1
  1760 ;;		Unchanged: FFE80/0
  1761 ;; Data sizes:     COMMON   BANK0   BANK1   BANK2
  1762 ;;      Params:         0       0       0       0
  1763 ;;      Locals:         0       0       0       0
  1764 ;;      Temps:          0       0       0       0
  1765 ;;      Totals:         0       0       0       0
  1766 ;;Total ram usage:        0 bytes
  1767 ;; Hardware stack levels used:    1
  1768 ;; This function calls:
  1769 ;;		Nothing
  1770 ;; This function is called by:
  1771 ;;		_main
  1772 ;; This function uses a non-reentrant model
  1773 ;;
  1774                           
  1775                           
  1776                           ;psect for function _SysInitGpio
  1777  07C7                     _SysInitGpio:	
  1778                           
  1779                           ;incstack = 0
  1780                           ; Regs used in _SysInitGpio: []
  1781                           ;main.c: 61: do { TRISAbits.TRISA4 = 0; TRISAbits.TRISA2 = 1; TRISAbits.TRISA5 = 1; } wh
      +                          ile(0);;
  1782  07C7  120C               	bcf	12,4	;volatile
  1783  07C8  150C               	bsf	12,2	;volatile
  1784  07C9  168C               	bsf	12,5	;volatile
  1785                           
  1786                           ;main.c: 62: do { TRISBbits.TRISB4 = 0; TRISBbits.TRISB6 = 0; TRISBbits.TRISB7 = 0; TRIS
      +                          Bbits.TRISB5 = 1; } while(0);;
  1787  07CA  120D               	bcf	13,4	;volatile
  1788  07CB  130D               	bcf	13,6	;volatile
  1789  07CC  138D               	bcf	13,7	;volatile
  1790  07CD  168D               	bsf	13,5	;volatile
  1791                           
  1792                           ;main.c: 63: do { TRISCbits.TRISC1 = 0; TRISCbits.TRISC2 = 0; TRISCbits.TRISC4 = 0; TRIS
      +                          Cbits.TRISC6 = 0; TRISCbits.TRISC7 = 0; TRISCbits.TRISC0 = 1; TRISCbits.TRISC3 = 1; TRIS
      +                          Cbits.TRISC5 = 1; } while(0);;
  1793  07CE  108E               	bcf	14,1	;volatile
  1794  07CF  110E               	bcf	14,2	;volatile
  1795  07D0  120E               	bcf	14,4	;volatile
  1796  07D1  130E               	bcf	14,6	;volatile
  1797  07D2  138E               	bcf	14,7	;volatile
  1798  07D3  140E               	bsf	14,0	;volatile
  1799  07D4  158E               	bsf	14,3	;volatile
  1800  07D5  168E               	bsf	14,5	;volatile
  1801  07D6  0008               	return
  1802  07D7                     __end_of_SysInitGpio:	
  1803  07D7                     PL2:	
  1804  07D7  0777               	addwf	MRF49XA_TxPacket@data,w
  1805  07D8  00F5               	movwf	??_MRF49XA_TxPacket
  1806  07D9  0086               	movwf	6
  1807  07DA  0187               	clrf	7
  1808  07DB  0801               	movf	1,w
  1809  07DC  0008               	return
  1810  07DD                     __end_ofPL2:	
  1811  07DD                     PL4:	
  1812  07DD  3083               	movlw	131
  1813  07DE  00F2               	movwf	?_SPI_Command
  1814  07DF  30CA               	movlw	202
  1815  07E0  00F3               	movwf	?_SPI_Command+1
  1816  07E1  0008               	return
  1817  07E2                     __end_ofPL4:	
  1818  07E2                     PL6:	
  1819  07E2  3068               	movlw	104
  1820  07E3  00F2               	movwf	?_SPI_Command
  1821  07E4  3080               	movlw	128
  1822  07E5  00F3               	movwf	?_SPI_Command+1
  1823  07E6  0008               	return
  1824  07E7                     __end_ofPL6:	
  1825  07E7                     PL8:	
  1826  07E7  3081               	movlw	129
  1827  07E8  00F2               	movwf	?_SPI_Command
  1828  07E9  30CA               	movlw	202
  1829  07EA  00F3               	movwf	?_SPI_Command+1
  1830  07EB  0008               	return
  1831  07EC                     __end_ofPL8:	
  1832  07EC                     PL10:	
  1833  07EC  3000               	movlw	0
  1834  07ED  00F2               	movwf	?_SPI_Command
  1835  07EE  3082               	movlw	130
  1836  07EF  00F3               	movwf	?_SPI_Command+1
  1837  07F0  0008               	return
  1838  07F1                     __end_ofPL10:	
  1839  07F1                     PL12:	
  1840  07F1  3020               	movlw	32
  1841  07F2  00F2               	movwf	?_SPI_Command
  1842  07F3  3082               	movlw	130
  1843  07F4  00F3               	movwf	?_SPI_Command+1
  1844  07F5  0008               	return
  1845  07F6                     __end_ofPL12:	
  1846  07F6                     PL14:	
  1847  07F6  3028               	movlw	40
  1848  07F7  00F2               	movwf	?_SPI_Command
  1849  07F8  3080               	movlw	128
  1850  07F9  00F3               	movwf	?_SPI_Command+1
  1851  07FA  0008               	return
  1852  07FB                     __end_ofPL14:	
  1853  07FB                     PL16:	
  1854  07FB  3080               	movlw	128
  1855  07FC  00F2               	movwf	?_SPI_Command
  1856  07FD  3082               	movlw	130
  1857  07FE  00F3               	movwf	?_SPI_Command+1
  1858  07FF  0008               	return
  1859  0800                     __end_ofPL16:	
  1860                           
  1861                           	psect	dataBANK0
  1862  0020                     __pdataBANK0:	
  1863  0020                     _bf:	
  1864  0020                     	ds	8
  1865                           
  1866                           	psect	inittext
  1867  0646                     init_ram:	
  1868  0646  00FE               	movwf	126
  1869  0647                     initloop:	
  1870  0647  0012               	moviw fsr0++
  1871  0648  001E               	movwi fsr1++
  1872  0649  0BFE               	decfsz	126,f
  1873  064A  2E47               	goto	initloop
  1874  064B  3400               	retlw	0
  1875                           
  1876                           	psect	cstackCOMMON
  1877  0070                     __pcstackCOMMON:	
  1878  0070                     ?_AdcInit:	
  1879  0070                     ??_AdcInit:	
  1880                           ; 0 bytes @ 0x0
  1881                           
  1882  0070                     ?_SPI_Write:	
  1883                           ; 0 bytes @ 0x0
  1884                           
  1885  0070                     ??_SPI_Write:	
  1886                           ; 0 bytes @ 0x0
  1887                           
  1888  0070                     ?_MRF49XA_Reset_Radio:	
  1889                           ; 0 bytes @ 0x0
  1890                           
  1891  0070                     ?_MRF49XA_Init:	
  1892                           ; 0 bytes @ 0x0
  1893                           
  1894  0070                     ?_SysInitGpio:	
  1895                           ; 0 bytes @ 0x0
  1896                           
  1897  0070                     ??_SysInitGpio:	
  1898                           ; 0 bytes @ 0x0
  1899                           
  1900  0070                     ?_main:	
  1901                           ; 0 bytes @ 0x0
  1902                           
  1903  0070                     SPI_Write@data:	
  1904                           ; 2 bytes @ 0x0
  1905                           
  1906                           
  1907                           ; 1 bytes @ 0x0
  1908  0070                     	ds	1
  1909  0071                     SPI_Write@i:	
  1910                           
  1911                           ; 1 bytes @ 0x1
  1912  0071                     	ds	1
  1913  0072                     ?_SPI_Command:	
  1914  0072                     SPI_Command@cmd:	
  1915                           ; 0 bytes @ 0x2
  1916                           
  1917                           
  1918                           ; 2 bytes @ 0x2
  1919  0072                     	ds	2
  1920  0074                     ??_SPI_Command:	
  1921  0074                     ??_MRF49XA_Reset_Radio:	
  1922                           ; 0 bytes @ 0x4
  1923                           
  1924  0074                     ??_MRF49XA_Init:	
  1925                           ; 0 bytes @ 0x4
  1926                           
  1927  0074                     ?_MRF49XA_TxPacket:	
  1928                           ; 0 bytes @ 0x4
  1929                           
  1930  0074                     MRF49XA_Init@i:	
  1931                           ; 0 bytes @ 0x4
  1932                           
  1933  0074                     MRF49XA_TxPacket@size:	
  1934                           ; 1 bytes @ 0x4
  1935                           
  1936                           
  1937                           ; 1 bytes @ 0x4
  1938  0074                     	ds	1
  1939  0075                     ??_MRF49XA_TxPacket:	
  1940  0075                     MRF49XA_Init@j:	
  1941                           ; 0 bytes @ 0x5
  1942                           
  1943                           
  1944                           ; 1 bytes @ 0x5
  1945  0075                     	ds	1
  1946  0076                     MRF49XA_TxPacket@crc:	
  1947                           
  1948                           ; 1 bytes @ 0x6
  1949  0076                     	ds	1
  1950  0077                     MRF49XA_TxPacket@data:	
  1951                           
  1952                           ; 1 bytes @ 0x7
  1953  0077                     	ds	1
  1954  0078                     MRF49XA_TxPacket@i:	
  1955                           
  1956                           ; 1 bytes @ 0x8
  1957  0078                     	ds	1
  1958  0079                     ??_main:	
  1959                           
  1960                           	psect	cstackBANK0
  1961  0028                     __pcstackBANK0:	
  1962                           ; 0 bytes @ 0x9
  1963                           
  1964  0028                     main@i:	
  1965                           
  1966                           ; 1 bytes @ 0x0
  1967  0028                     	ds	1
  1968  0029                     main@j:	
  1969                           
  1970                           ; 1 bytes @ 0x1
  1971  0029                     	ds	1
  1972  002A                     main@i_372:	
  1973                           
  1974                           ; 1 bytes @ 0x2
  1975  002A                     	ds	1
  1976  002B                     main@j_373:	
  1977                           
  1978                           ; 1 bytes @ 0x3
  1979  002B                     	ds	1
  1980  002C                     main@k:	
  1981                           
  1982                           ; 1 bytes @ 0x4
  1983  002C                     	ds	1
  1984  002D                     main@i_375:	
  1985                           
  1986                           ; 1 bytes @ 0x5
  1987  002D                     	ds	1
  1988  002E                     main@j_376:	
  1989                           
  1990                           ; 1 bytes @ 0x6
  1991  002E                     	ds	1


Data Sizes:
    Strings     0
    Constant    0
    Data        8
    BSS         0
    Persistent  0
    Stack       0

Auto Spaces:
    Space          Size  Autos    Used
    COMMON           14      9       9
    BANK0            80      7      15
    BANK1            80      0       0
    BANK2            80      0       0

Pointer List with Targets:

    MRF49XA_TxPacket@data	PTR unsigned char  size(1) Largest target is 8
		 -> bf(BANK0[8]), 


Critical Paths under _main in COMMON

    _main->_MRF49XA_TxPacket
    _MRF49XA_TxPacket->_SPI_Command
    _MRF49XA_Init->_SPI_Command
    _MRF49XA_Reset_Radio->_SPI_Command
    _SPI_Command->_SPI_Write

Critical Paths under _main in BANK0

    None.

Critical Paths under _main in BANK1

    None.

Critical Paths under _main in BANK2

    None.

Call Graph Tables:

 ---------------------------------------------------------------------------------
 (Depth) Function   	        Calls       Base Space   Used Autos Params    Refs
 ---------------------------------------------------------------------------------
 (0) _main                                                 7     7      0    1094
                                              0 BANK0      7     7      0
                            _AdcInit
                _MRF49XA_Reset_Radio
                       _MRF49XA_Init
                   _MRF49XA_TxPacket
                        _SysInitGpio
 ---------------------------------------------------------------------------------
 (1) _SysInitGpio                                          0     0      0       0
 ---------------------------------------------------------------------------------
 (1) _MRF49XA_TxPacket                                     5     4      1     362
                                              4 COMMON     5     4      1
                          _SPI_Write
                        _SPI_Command
 ---------------------------------------------------------------------------------
 (1) _MRF49XA_Init                                         2     2      0     297
                                              4 COMMON     2     2      0
                        _SPI_Command
 ---------------------------------------------------------------------------------
 (1) _MRF49XA_Reset_Radio                                  0     0      0     113
                        _SPI_Command
 ---------------------------------------------------------------------------------
 (2) _SPI_Command                                          2     0      2     113
                                              2 COMMON     2     0      2
                          _SPI_Write
 ---------------------------------------------------------------------------------
 (3) _SPI_Write                                            2     2      0      69
                                              0 COMMON     2     2      0
 ---------------------------------------------------------------------------------
 (1) _AdcInit                                              0     0      0       0
 ---------------------------------------------------------------------------------
 Estimated maximum stack depth 3
 ---------------------------------------------------------------------------------

 Call Graph Graphs:

 _main (ROOT)
   _AdcInit
   _MRF49XA_Reset_Radio
     _SPI_Command
       _SPI_Write
   _MRF49XA_Init
     _SPI_Command
       _SPI_Write
   _MRF49XA_TxPacket
     _SPI_Write
     _SPI_Command
       _SPI_Write
   _SysInitGpio

 Address spaces:
Name               Size   Autos  Total    Cost      Usage
BIGRAM              F0      0       0       0        0.0%
NULL                 0      0       0       0        0.0%
CODE                 0      0       0       0        0.0%
BITCOMMON            E      0       0       1        0.0%
BITSFR0              0      0       0       1        0.0%
SFR0                 0      0       0       1        0.0%
COMMON               E      9       9       2       64.3%
BITSFR1              0      0       0       2        0.0%
SFR1                 0      0       0       2        0.0%
BITSFR2              0      0       0       3        0.0%
SFR2                 0      0       0       3        0.0%
STACK                0      0       3       3        0.0%
BITSFR3              0      0       0       4        0.0%
SFR3                 0      0       0       4        0.0%
ABS                  0      0      18       4        0.0%
BITBANK0            50      0       0       5        0.0%
BITSFR4              0      0       0       5        0.0%
SFR4                 0      0       0       5        0.0%
BANK0               50      7       F       6       18.8%
BITSFR5              0      0       0       6        0.0%
SFR5                 0      0       0       6        0.0%
BITBANK1            50      0       0       7        0.0%
BITSFR6              0      0       0       7        0.0%
SFR6                 0      0       0       7        0.0%
BANK1               50      0       0       8        0.0%
BITSFR7              0      0       0       8        0.0%
SFR7                 0      0       0       8        0.0%
BITBANK2            50      0       0       9        0.0%
BITSFR8              0      0       0       9        0.0%
SFR8                 0      0       0       9        0.0%
BANK2               50      0       0      10        0.0%
BITSFR9              0      0       0      10        0.0%
SFR9                 0      0       0      10        0.0%
BITSFR10             0      0       0      11        0.0%
SFR10                0      0       0      11        0.0%
DATA                 0      0      1B      11        0.0%
BITSFR11             0      0       0      12        0.0%
SFR11                0      0       0      12        0.0%
BITSFR12             0      0       0      13        0.0%
SFR12                0      0       0      13        0.0%
BITSFR13             0      0       0      14        0.0%
SFR13                0      0       0      14        0.0%
BITSFR14             0      0       0      15        0.0%
SFR14                0      0       0      15        0.0%
BITSFR15             0      0       0      16        0.0%
SFR15                0      0       0      16        0.0%
BITSFR16             0      0       0      17        0.0%
SFR16                0      0       0      17        0.0%
BITSFR17             0      0       0      18        0.0%
SFR17                0      0       0      18        0.0%
BITSFR18             0      0       0      19        0.0%
SFR18                0      0       0      19        0.0%
BITSFR19             0      0       0      20        0.0%
SFR19                0      0       0      20        0.0%
BITSFR20             0      0       0      21        0.0%
SFR20                0      0       0      21        0.0%
BITSFR21             0      0       0      22        0.0%
SFR21                0      0       0      22        0.0%
BITSFR22             0      0       0      23        0.0%
SFR22                0      0       0      23        0.0%
BITSFR23             0      0       0      24        0.0%
SFR23                0      0       0      24        0.0%
BITSFR24             0      0       0      25        0.0%
SFR24                0      0       0      25        0.0%
BITSFR25             0      0       0      26        0.0%
SFR25                0      0       0      26        0.0%
BITSFR26             0      0       0      27        0.0%
SFR26                0      0       0      27        0.0%
BITSFR27             0      0       0      28        0.0%
SFR27                0      0       0      28        0.0%
BITSFR28             0      0       0      29        0.0%
SFR28                0      0       0      29        0.0%
BITSFR29             0      0       0      30        0.0%
SFR29                0      0       0      30        0.0%
BITSFR30             0      0       0      31        0.0%
SFR30                0      0       0      31        0.0%
BITSFR31             0      0       0      32        0.0%
SFR31                0      0       0      32        0.0%


Microchip Technology PIC Macro Assembler V1.20 build 52243 
Symbol Table                                                                                   Tue Jan 21 15:13:30 2014

                          PL2 07D7                            PL4 07DD                            PL6 07E2  
                          PL8 07E7                            _bf 0020                           PL10 07EC  
                         PL12 07F1                           PL14 07F6                           PL16 07FB  
                         l203 0706                           l213 0712                           l142 0736  
                         l223 071E                           l144 073A                           l160 074A  
                         l208 070C                           l145 073B                           l218 0718  
                         l170 06D2                           l164 0791                           l180 06E1  
                         l190 06ED                           l175 06DB                           l185 06E7  
                         l283 0671                           l197 06F8                           l294 0696  
                         l287 067F                           l903 07AF                           l941 0790  
                         l919 0749                           l987 06F4                  __CFG_BORV$HI 0000  
                __CFG_LVP$OFF 0000           MRF49XA_TxPacket@crc 0076                          l1015 0670  
                        l1051 068D                          l1035 067E                          l1065 0695  
                        l1059 0694                  __CFG_WRT$ALL 0000                          _main 0662  
             __end_of_AdcInit 07C7                          fsr0h 0005                          fsr1h 0007  
                        fsr0l 0004                          indf1 0001                          fsr1l 0006  
                        btemp 007E                          start 0002                 __CFG_IESO$OFF 0000  
               ?_MRF49XA_Init 0070          MRF49XA_TxPacket@data 0077          MRF49XA_TxPacket@size 0074  
                       ?_main 0070                 __CFG_WDTE$OFF 0000                 __CFG_PWRTE$ON 0000  
              __CFG_FCMEN$OFF 0000                         main@i 0028                         main@j 0029  
                       main@k 002C                __CFG_BOREN$OFF 0000             ?_MRF49XA_TxPacket 0074  
                       wtemp0 007E            ??_MRF49XA_TxPacket 0075            __size_of_SPI_Write 0012  
              ??_MRF49XA_Init 0074               __initialization 0654                  __end_of_main 06A8  
                      ??_main 0079                        _ADCON0 009D                        _ADCON1 009E  
                      _ADCON2 009F                     ??_AdcInit 0070                        _ANSELA 018C  
                      _ANSELB 018D                        _ANSELC 018E                        _FVRCON 0117  
                      _OSCCON 0099             __end_of_SPI_Write 0744       __end_of__initialization 0660  
 __end_of_MRF49XA_Reset_Radio 06BF                  ?_SPI_Command 0072                __pcstackCOMMON 0070  
                __pidataBANK0 064C                    __end_ofPL2 07DD                    __end_ofPL4 07E2  
                  __end_ofPL6 07E7                    __end_ofPL8 07EC          __end_of_MRF49XA_Init 07AF  
               ??_SysInitGpio 0070                    __pmaintext 0662                       _AdcInit 07B8  
         __end_of_SysInitGpio 07D7                 SPI_Write@data 0070     __size_of_MRF49XA_TxPacket 0073  
               MRF49XA_Init@i 0074                 MRF49XA_Init@j 0075                       __ptext1 07C7  
                     __ptext2 06BF                       __ptext3 0744                       __ptext4 06A8  
                     __ptext5 07AF                       __ptext6 0732                       __ptext7 07B8  
        end_of_initialization 0660                SPI_Command@cmd 0072                       init_ram 0646  
                     initloop 0647          __size_of_SPI_Command 0009                     _PORTCbits 000E  
       __size_of_MRF49XA_Init 006B              __CFG_FOSC$INTOSC 0000                     _TRISAbits 008C  
                   _TRISBbits 008D                     _TRISCbits 008E                     _SPI_Write 0732  
                 _SysInitGpio 07C7                  _MRF49XA_Init 0744                   __end_ofPL10 07F1  
                 __end_ofPL12 07F6                   __end_ofPL14 07FB                   __end_ofPL16 0800  
         start_initialization 0654                    ?_SPI_Write 0070              _MRF49XA_TxPacket 06BF  
                 __pdataBANK0 0020  __size_of_MRF49XA_Reset_Radio 0017                 __pcstackBANK0 0028  
                    ?_AdcInit 0070                   ??_SPI_Write 0070                      _LATAbits 010C  
                    _LATBbits 010D                      _LATCbits 010E                     main@i_372 002A  
                   main@i_375 002D                     main@j_373 002B                     main@j_376 002E  
           MRF49XA_TxPacket@i 0078              __size_of_AdcInit 000F                  ?_SysInitGpio 0070  
               ??_SPI_Command 0074                    SPI_Write@i 0071      __end_of_MRF49XA_TxPacket 0732  
         _MRF49XA_Reset_Radio 06A8                 __size_of_main 0046           __end_of_SPI_Command 07B8  
        ?_MRF49XA_Reset_Radio 0070         ??_MRF49XA_Reset_Radio 0074          __size_of_SysInitGpio 0010  
                 _SPI_Command 07AF  
