

Microchip Technology PIC PRO Macro Assembler V1.30 build 55553 
                                                                                               Wed Apr 16 14:41:48 2014

Microchip Technology Omniscient Code Generator (PRO mode) build 55553
     1                           	processor	16LF1508
     2                           	opt	pw 120
     3                           	opt	pm
     4                           	psect	strings,global,class=STRING,delta=2
     5                           	psect	cinit,global,class=CODE,merge=1,delta=2
     6                           	psect	bssCOMMON,global,class=COMMON,space=1,delta=1
     7                           	psect	bssBANK0,global,class=BANK0,space=1,delta=1
     8                           	psect	clrtext,global,class=CODE,delta=2
     9                           	psect	cstackCOMMON,global,class=COMMON,space=1,delta=1
    10                           	psect	cstackBANK0,global,class=BANK0,space=1,delta=1
    11                           	psect	intentry,global,class=CODE,delta=2
    12                           	psect	text8,local,class=CODE,merge=1,delta=2
    13                           	psect	pa_nodes,global,class=CODE,delta=2
    14                           	dabs	1,0x7E,2
    15  0000                     	;# 
    16  0001                     	;# 
    17  0002                     	;# 
    18  0003                     	;# 
    19  0004                     	;# 
    20  0005                     	;# 
    21  0006                     	;# 
    22  0007                     	;# 
    23  0008                     	;# 
    24  0009                     	;# 
    25  000A                     	;# 
    26  000B                     	;# 
    27  000C                     	;# 
    28  000D                     	;# 
    29  000E                     	;# 
    30  0011                     	;# 
    31  0012                     	;# 
    32  0013                     	;# 
    33  0015                     	;# 
    34  0016                     	;# 
    35  0016                     	;# 
    36  0017                     	;# 
    37  0018                     	;# 
    38  0019                     	;# 
    39  001A                     	;# 
    40  001B                     	;# 
    41  001C                     	;# 
    42  008C                     	;# 
    43  008D                     	;# 
    44  008E                     	;# 
    45  0091                     	;# 
    46  0092                     	;# 
    47  0093                     	;# 
    48  0095                     	;# 
    49  0096                     	;# 
    50  0097                     	;# 
    51  0099                     	;# 
    52  009A                     	;# 
    53  009B                     	;# 
    54  009B                     	;# 
    55  009C                     	;# 
    56  009D                     	;# 
    57  009E                     	;# 
    58  009F                     	;# 
    59  010C                     	;# 
    60  010D                     	;# 
    61  010E                     	;# 
    62  0111                     	;# 
    63  0112                     	;# 
    64  0113                     	;# 
    65  0114                     	;# 
    66  0115                     	;# 
    67  0116                     	;# 
    68  0117                     	;# 
    69  0118                     	;# 
    70  0119                     	;# 
    71  011D                     	;# 
    72  018C                     	;# 
    73  018D                     	;# 
    74  018E                     	;# 
    75  0191                     	;# 
    76  0191                     	;# 
    77  0192                     	;# 
    78  0193                     	;# 
    79  0193                     	;# 
    80  0194                     	;# 
    81  0195                     	;# 
    82  0196                     	;# 
    83  0199                     	;# 
    84  019A                     	;# 
    85  019B                     	;# 
    86  019B                     	;# 
    87  019C                     	;# 
    88  019D                     	;# 
    89  019E                     	;# 
    90  019F                     	;# 
    91  020C                     	;# 
    92  020D                     	;# 
    93  0211                     	;# 
    94  0211                     	;# 
    95  0212                     	;# 
    96  0212                     	;# 
    97  0213                     	;# 
    98  0213                     	;# 
    99  0214                     	;# 
   100  0214                     	;# 
   101  0215                     	;# 
   102  0215                     	;# 
   103  0215                     	;# 
   104  0216                     	;# 
   105  0216                     	;# 
   106  0217                     	;# 
   107  0217                     	;# 
   108  0391                     	;# 
   109  0392                     	;# 
   110  0393                     	;# 
   111  0394                     	;# 
   112  0395                     	;# 
   113  0396                     	;# 
   114  0498                     	;# 
   115  0498                     	;# 
   116  0499                     	;# 
   117  049A                     	;# 
   118  049B                     	;# 
   119  049B                     	;# 
   120  049C                     	;# 
   121  049E                     	;# 
   122  049F                     	;# 
   123  0611                     	;# 
   124  0612                     	;# 
   125  0613                     	;# 
   126  0613                     	;# 
   127  0614                     	;# 
   128  0615                     	;# 
   129  0616                     	;# 
   130  0616                     	;# 
   131  0617                     	;# 
   132  0618                     	;# 
   133  0619                     	;# 
   134  0619                     	;# 
   135  061A                     	;# 
   136  061B                     	;# 
   137  061C                     	;# 
   138  061C                     	;# 
   139  0691                     	;# 
   140  0692                     	;# 
   141  0693                     	;# 
   142  0694                     	;# 
   143  0695                     	;# 
   144  0F0F                     	;# 
   145  0F10                     	;# 
   146  0F11                     	;# 
   147  0F12                     	;# 
   148  0F13                     	;# 
   149  0F14                     	;# 
   150  0F15                     	;# 
   151  0F16                     	;# 
   152  0F17                     	;# 
   153  0F18                     	;# 
   154  0F19                     	;# 
   155  0F1A                     	;# 
   156  0F1B                     	;# 
   157  0F1C                     	;# 
   158  0F1D                     	;# 
   159  0F1E                     	;# 
   160  0F1F                     	;# 
   161  0F20                     	;# 
   162  0F21                     	;# 
   163  0F22                     	;# 
   164  0F23                     	;# 
   165  0F24                     	;# 
   166  0F25                     	;# 
   167  0F26                     	;# 
   168  0F27                     	;# 
   169  0F28                     	;# 
   170  0F29                     	;# 
   171  0F2A                     	;# 
   172  0F2B                     	;# 
   173  0F2C                     	;# 
   174  0F2D                     	;# 
   175  0F2E                     	;# 
   176  0F2F                     	;# 
   177  0F8C                     	;# 
   178  0F8D                     	;# 
   179  0F91                     	;# 
   180  0F95                     	;# 
   181  0F96                     	;# 
   182  0F97                     	;# 
   183  0F9C                     	;# 
   184  0F9D                     	;# 
   185  0F9E                     	;# 
   186  0FE3                     	;# 
   187  0FE4                     	;# 
   188  0FE5                     	;# 
   189  0FE6                     	;# 
   190  0FE7                     	;# 
   191  0FE8                     	;# 
   192  0FE9                     	;# 
   193  0FEA                     	;# 
   194  0FEB                     	;# 
   195  0FED                     	;# 
   196  0FEE                     	;# 
   197  0FEF                     	;# 
   198  0000                     	;# 
   199  0001                     	;# 
   200  0002                     	;# 
   201  0003                     	;# 
   202  0004                     	;# 
   203  0005                     	;# 
   204  0006                     	;# 
   205  0007                     	;# 
   206  0008                     	;# 
   207  0009                     	;# 
   208  000A                     	;# 
   209  000B                     	;# 
   210  000C                     	;# 
   211  000D                     	;# 
   212  000E                     	;# 
   213  0011                     	;# 
   214  0012                     	;# 
   215  0013                     	;# 
   216  0015                     	;# 
   217  0016                     	;# 
   218  0016                     	;# 
   219  0017                     	;# 
   220  0018                     	;# 
   221  0019                     	;# 
   222  001A                     	;# 
   223  001B                     	;# 
   224  001C                     	;# 
   225  008C                     	;# 
   226  008D                     	;# 
   227  008E                     	;# 
   228  0091                     	;# 
   229  0092                     	;# 
   230  0093                     	;# 
   231  0095                     	;# 
   232  0096                     	;# 
   233  0097                     	;# 
   234  0099                     	;# 
   235  009A                     	;# 
   236  009B                     	;# 
   237  009B                     	;# 
   238  009C                     	;# 
   239  009D                     	;# 
   240  009E                     	;# 
   241  009F                     	;# 
   242  010C                     	;# 
   243  010D                     	;# 
   244  010E                     	;# 
   245  0111                     	;# 
   246  0112                     	;# 
   247  0113                     	;# 
   248  0114                     	;# 
   249  0115                     	;# 
   250  0116                     	;# 
   251  0117                     	;# 
   252  0118                     	;# 
   253  0119                     	;# 
   254  011D                     	;# 
   255  018C                     	;# 
   256  018D                     	;# 
   257  018E                     	;# 
   258  0191                     	;# 
   259  0191                     	;# 
   260  0192                     	;# 
   261  0193                     	;# 
   262  0193                     	;# 
   263  0194                     	;# 
   264  0195                     	;# 
   265  0196                     	;# 
   266  0199                     	;# 
   267  019A                     	;# 
   268  019B                     	;# 
   269  019B                     	;# 
   270  019C                     	;# 
   271  019D                     	;# 
   272  019E                     	;# 
   273  019F                     	;# 
   274  020C                     	;# 
   275  020D                     	;# 
   276  0211                     	;# 
   277  0211                     	;# 
   278  0212                     	;# 
   279  0212                     	;# 
   280  0213                     	;# 
   281  0213                     	;# 
   282  0214                     	;# 
   283  0214                     	;# 
   284  0215                     	;# 
   285  0215                     	;# 
   286  0215                     	;# 
   287  0216                     	;# 
   288  0216                     	;# 
   289  0217                     	;# 
   290  0217                     	;# 
   291  0391                     	;# 
   292  0392                     	;# 
   293  0393                     	;# 
   294  0394                     	;# 
   295  0395                     	;# 
   296  0396                     	;# 
   297  0498                     	;# 
   298  0498                     	;# 
   299  0499                     	;# 
   300  049A                     	;# 
   301  049B                     	;# 
   302  049B                     	;# 
   303  049C                     	;# 
   304  049E                     	;# 
   305  049F                     	;# 
   306  0611                     	;# 
   307  0612                     	;# 
   308  0613                     	;# 
   309  0613                     	;# 
   310  0614                     	;# 
   311  0615                     	;# 
   312  0616                     	;# 
   313  0616                     	;# 
   314  0617                     	;# 
   315  0618                     	;# 
   316  0619                     	;# 
   317  0619                     	;# 
   318  061A                     	;# 
   319  061B                     	;# 
   320  061C                     	;# 
   321  061C                     	;# 
   322  0691                     	;# 
   323  0692                     	;# 
   324  0693                     	;# 
   325  0694                     	;# 
   326  0695                     	;# 
   327  0F0F                     	;# 
   328  0F10                     	;# 
   329  0F11                     	;# 
   330  0F12                     	;# 
   331  0F13                     	;# 
   332  0F14                     	;# 
   333  0F15                     	;# 
   334  0F16                     	;# 
   335  0F17                     	;# 
   336  0F18                     	;# 
   337  0F19                     	;# 
   338  0F1A                     	;# 
   339  0F1B                     	;# 
   340  0F1C                     	;# 
   341  0F1D                     	;# 
   342  0F1E                     	;# 
   343  0F1F                     	;# 
   344  0F20                     	;# 
   345  0F21                     	;# 
   346  0F22                     	;# 
   347  0F23                     	;# 
   348  0F24                     	;# 
   349  0F25                     	;# 
   350  0F26                     	;# 
   351  0F27                     	;# 
   352  0F28                     	;# 
   353  0F29                     	;# 
   354  0F2A                     	;# 
   355  0F2B                     	;# 
   356  0F2C                     	;# 
   357  0F2D                     	;# 
   358  0F2E                     	;# 
   359  0F2F                     	;# 
   360  0F8C                     	;# 
   361  0F8D                     	;# 
   362  0F91                     	;# 
   363  0F95                     	;# 
   364  0F96                     	;# 
   365  0F97                     	;# 
   366  0F9C                     	;# 
   367  0F9D                     	;# 
   368  0F9E                     	;# 
   369  0FE3                     	;# 
   370  0FE4                     	;# 
   371  0FE5                     	;# 
   372  0FE6                     	;# 
   373  0FE7                     	;# 
   374  0FE8                     	;# 
   375  0FE9                     	;# 
   376  0FEA                     	;# 
   377  0FEB                     	;# 
   378  0FED                     	;# 
   379  0FEE                     	;# 
   380  0FEF                     	;# 
   381  0000                     	;# 
   382  0001                     	;# 
   383  0002                     	;# 
   384  0003                     	;# 
   385  0004                     	;# 
   386  0005                     	;# 
   387  0006                     	;# 
   388  0007                     	;# 
   389  0008                     	;# 
   390  0009                     	;# 
   391  000A                     	;# 
   392  000B                     	;# 
   393  000C                     	;# 
   394  000D                     	;# 
   395  000E                     	;# 
   396  0011                     	;# 
   397  0012                     	;# 
   398  0013                     	;# 
   399  0015                     	;# 
   400  0016                     	;# 
   401  0016                     	;# 
   402  0017                     	;# 
   403  0018                     	;# 
   404  0019                     	;# 
   405  001A                     	;# 
   406  001B                     	;# 
   407  001C                     	;# 
   408  008C                     	;# 
   409  008D                     	;# 
   410  008E                     	;# 
   411  0091                     	;# 
   412  0092                     	;# 
   413  0093                     	;# 
   414  0095                     	;# 
   415  0096                     	;# 
   416  0097                     	;# 
   417  0099                     	;# 
   418  009A                     	;# 
   419  009B                     	;# 
   420  009B                     	;# 
   421  009C                     	;# 
   422  009D                     	;# 
   423  009E                     	;# 
   424  009F                     	;# 
   425  010C                     	;# 
   426  010D                     	;# 
   427  010E                     	;# 
   428  0111                     	;# 
   429  0112                     	;# 
   430  0113                     	;# 
   431  0114                     	;# 
   432  0115                     	;# 
   433  0116                     	;# 
   434  0117                     	;# 
   435  0118                     	;# 
   436  0119                     	;# 
   437  011D                     	;# 
   438  018C                     	;# 
   439  018D                     	;# 
   440  018E                     	;# 
   441  0191                     	;# 
   442  0191                     	;# 
   443  0192                     	;# 
   444  0193                     	;# 
   445  0193                     	;# 
   446  0194                     	;# 
   447  0195                     	;# 
   448  0196                     	;# 
   449  0199                     	;# 
   450  019A                     	;# 
   451  019B                     	;# 
   452  019B                     	;# 
   453  019C                     	;# 
   454  019D                     	;# 
   455  019E                     	;# 
   456  019F                     	;# 
   457  020C                     	;# 
   458  020D                     	;# 
   459  0211                     	;# 
   460  0211                     	;# 
   461  0212                     	;# 
   462  0212                     	;# 
   463  0213                     	;# 
   464  0213                     	;# 
   465  0214                     	;# 
   466  0214                     	;# 
   467  0215                     	;# 
   468  0215                     	;# 
   469  0215                     	;# 
   470  0216                     	;# 
   471  0216                     	;# 
   472  0217                     	;# 
   473  0217                     	;# 
   474  0391                     	;# 
   475  0392                     	;# 
   476  0393                     	;# 
   477  0394                     	;# 
   478  0395                     	;# 
   479  0396                     	;# 
   480  0498                     	;# 
   481  0498                     	;# 
   482  0499                     	;# 
   483  049A                     	;# 
   484  049B                     	;# 
   485  049B                     	;# 
   486  049C                     	;# 
   487  049E                     	;# 
   488  049F                     	;# 
   489  0611                     	;# 
   490  0612                     	;# 
   491  0613                     	;# 
   492  0613                     	;# 
   493  0614                     	;# 
   494  0615                     	;# 
   495  0616                     	;# 
   496  0616                     	;# 
   497  0617                     	;# 
   498  0618                     	;# 
   499  0619                     	;# 
   500  0619                     	;# 
   501  061A                     	;# 
   502  061B                     	;# 
   503  061C                     	;# 
   504  061C                     	;# 
   505  0691                     	;# 
   506  0692                     	;# 
   507  0693                     	;# 
   508  0694                     	;# 
   509  0695                     	;# 
   510  0F0F                     	;# 
   511  0F10                     	;# 
   512  0F11                     	;# 
   513  0F12                     	;# 
   514  0F13                     	;# 
   515  0F14                     	;# 
   516  0F15                     	;# 
   517  0F16                     	;# 
   518  0F17                     	;# 
   519  0F18                     	;# 
   520  0F19                     	;# 
   521  0F1A                     	;# 
   522  0F1B                     	;# 
   523  0F1C                     	;# 
   524  0F1D                     	;# 
   525  0F1E                     	;# 
   526  0F1F                     	;# 
   527  0F20                     	;# 
   528  0F21                     	;# 
   529  0F22                     	;# 
   530  0F23                     	;# 
   531  0F24                     	;# 
   532  0F25                     	;# 
   533  0F26                     	;# 
   534  0F27                     	;# 
   535  0F28                     	;# 
   536  0F29                     	;# 
   537  0F2A                     	;# 
   538  0F2B                     	;# 
   539  0F2C                     	;# 
   540  0F2D                     	;# 
   541  0F2E                     	;# 
   542  0F2F                     	;# 
   543  0F8C                     	;# 
   544  0F8D                     	;# 
   545  0F91                     	;# 
   546  0F95                     	;# 
   547  0F96                     	;# 
   548  0F97                     	;# 
   549  0F9C                     	;# 
   550  0F9D                     	;# 
   551  0F9E                     	;# 
   552  0FE3                     	;# 
   553  0FE4                     	;# 
   554  0FE5                     	;# 
   555  0FE6                     	;# 
   556  0FE7                     	;# 
   557  0FE8                     	;# 
   558  0FE9                     	;# 
   559  0FEA                     	;# 
   560  0FEB                     	;# 
   561  0FED                     	;# 
   562  0FEE                     	;# 
   563  0FEF                     	;# 
   564  0000                     	;# 
   565  0001                     	;# 
   566  0002                     	;# 
   567  0003                     	;# 
   568  0004                     	;# 
   569  0005                     	;# 
   570  0006                     	;# 
   571  0007                     	;# 
   572  0008                     	;# 
   573  0009                     	;# 
   574  000A                     	;# 
   575  000B                     	;# 
   576  000C                     	;# 
   577  000D                     	;# 
   578  000E                     	;# 
   579  0011                     	;# 
   580  0012                     	;# 
   581  0013                     	;# 
   582  0015                     	;# 
   583  0016                     	;# 
   584  0016                     	;# 
   585  0017                     	;# 
   586  0018                     	;# 
   587  0019                     	;# 
   588  001A                     	;# 
   589  001B                     	;# 
   590  001C                     	;# 
   591  008C                     	;# 
   592  008D                     	;# 
   593  008E                     	;# 
   594  0091                     	;# 
   595  0092                     	;# 
   596  0093                     	;# 
   597  0095                     	;# 
   598  0096                     	;# 
   599  0097                     	;# 
   600  0099                     	;# 
   601  009A                     	;# 
   602  009B                     	;# 
   603  009B                     	;# 
   604  009C                     	;# 
   605  009D                     	;# 
   606  009E                     	;# 
   607  009F                     	;# 
   608  010C                     	;# 
   609  010D                     	;# 
   610  010E                     	;# 
   611  0111                     	;# 
   612  0112                     	;# 
   613  0113                     	;# 
   614  0114                     	;# 
   615  0115                     	;# 
   616  0116                     	;# 
   617  0117                     	;# 
   618  0118                     	;# 
   619  0119                     	;# 
   620  011D                     	;# 
   621  018C                     	;# 
   622  018D                     	;# 
   623  018E                     	;# 
   624  0191                     	;# 
   625  0191                     	;# 
   626  0192                     	;# 
   627  0193                     	;# 
   628  0193                     	;# 
   629  0194                     	;# 
   630  0195                     	;# 
   631  0196                     	;# 
   632  0199                     	;# 
   633  019A                     	;# 
   634  019B                     	;# 
   635  019B                     	;# 
   636  019C                     	;# 
   637  019D                     	;# 
   638  019E                     	;# 
   639  019F                     	;# 
   640  020C                     	;# 
   641  020D                     	;# 
   642  0211                     	;# 
   643  0211                     	;# 
   644  0212                     	;# 
   645  0212                     	;# 
   646  0213                     	;# 
   647  0213                     	;# 
   648  0214                     	;# 
   649  0214                     	;# 
   650  0215                     	;# 
   651  0215                     	;# 
   652  0215                     	;# 
   653  0216                     	;# 
   654  0216                     	;# 
   655  0217                     	;# 
   656  0217                     	;# 
   657  0391                     	;# 
   658  0392                     	;# 
   659  0393                     	;# 
   660  0394                     	;# 
   661  0395                     	;# 
   662  0396                     	;# 
   663  0498                     	;# 
   664  0498                     	;# 
   665  0499                     	;# 
   666  049A                     	;# 
   667  049B                     	;# 
   668  049B                     	;# 
   669  049C                     	;# 
   670  049E                     	;# 
   671  049F                     	;# 
   672  0611                     	;# 
   673  0612                     	;# 
   674  0613                     	;# 
   675  0613                     	;# 
   676  0614                     	;# 
   677  0615                     	;# 
   678  0616                     	;# 
   679  0616                     	;# 
   680  0617                     	;# 
   681  0618                     	;# 
   682  0619                     	;# 
   683  0619                     	;# 
   684  061A                     	;# 
   685  061B                     	;# 
   686  061C                     	;# 
   687  061C                     	;# 
   688  0691                     	;# 
   689  0692                     	;# 
   690  0693                     	;# 
   691  0694                     	;# 
   692  0695                     	;# 
   693  0F0F                     	;# 
   694  0F10                     	;# 
   695  0F11                     	;# 
   696  0F12                     	;# 
   697  0F13                     	;# 
   698  0F14                     	;# 
   699  0F15                     	;# 
   700  0F16                     	;# 
   701  0F17                     	;# 
   702  0F18                     	;# 
   703  0F19                     	;# 
   704  0F1A                     	;# 
   705  0F1B                     	;# 
   706  0F1C                     	;# 
   707  0F1D                     	;# 
   708  0F1E                     	;# 
   709  0F1F                     	;# 
   710  0F20                     	;# 
   711  0F21                     	;# 
   712  0F22                     	;# 
   713  0F23                     	;# 
   714  0F24                     	;# 
   715  0F25                     	;# 
   716  0F26                     	;# 
   717  0F27                     	;# 
   718  0F28                     	;# 
   719  0F29                     	;# 
   720  0F2A                     	;# 
   721  0F2B                     	;# 
   722  0F2C                     	;# 
   723  0F2D                     	;# 
   724  0F2E                     	;# 
   725  0F2F                     	;# 
   726  0F8C                     	;# 
   727  0F8D                     	;# 
   728  0F91                     	;# 
   729  0F95                     	;# 
   730  0F96                     	;# 
   731  0F97                     	;# 
   732  0F9C                     	;# 
   733  0F9D                     	;# 
   734  0F9E                     	;# 
   735  0FE3                     	;# 
   736  0FE4                     	;# 
   737  0FE5                     	;# 
   738  0FE6                     	;# 
   739  0FE7                     	;# 
   740  0FE8                     	;# 
   741  0FE9                     	;# 
   742  0FEA                     	;# 
   743  0FEB                     	;# 
   744  0FED                     	;# 
   745  0FEE                     	;# 
   746  0FEF                     	;# 
   747  0000                     	;# 
   748  0001                     	;# 
   749  0002                     	;# 
   750  0003                     	;# 
   751  0004                     	;# 
   752  0005                     	;# 
   753  0006                     	;# 
   754  0007                     	;# 
   755  0008                     	;# 
   756  0009                     	;# 
   757  000A                     	;# 
   758  000B                     	;# 
   759  000C                     	;# 
   760  000D                     	;# 
   761  000E                     	;# 
   762  0011                     	;# 
   763  0012                     	;# 
   764  0013                     	;# 
   765  0015                     	;# 
   766  0016                     	;# 
   767  0016                     	;# 
   768  0017                     	;# 
   769  0018                     	;# 
   770  0019                     	;# 
   771  001A                     	;# 
   772  001B                     	;# 
   773  001C                     	;# 
   774  008C                     	;# 
   775  008D                     	;# 
   776  008E                     	;# 
   777  0091                     	;# 
   778  0092                     	;# 
   779  0093                     	;# 
   780  0095                     	;# 
   781  0096                     	;# 
   782  0097                     	;# 
   783  0099                     	;# 
   784  009A                     	;# 
   785  009B                     	;# 
   786  009B                     	;# 
   787  009C                     	;# 
   788  009D                     	;# 
   789  009E                     	;# 
   790  009F                     	;# 
   791  010C                     	;# 
   792  010D                     	;# 
   793  010E                     	;# 
   794  0111                     	;# 
   795  0112                     	;# 
   796  0113                     	;# 
   797  0114                     	;# 
   798  0115                     	;# 
   799  0116                     	;# 
   800  0117                     	;# 
   801  0118                     	;# 
   802  0119                     	;# 
   803  011D                     	;# 
   804  018C                     	;# 
   805  018D                     	;# 
   806  018E                     	;# 
   807  0191                     	;# 
   808  0191                     	;# 
   809  0192                     	;# 
   810  0193                     	;# 
   811  0193                     	;# 
   812  0194                     	;# 
   813  0195                     	;# 
   814  0196                     	;# 
   815  0199                     	;# 
   816  019A                     	;# 
   817  019B                     	;# 
   818  019B                     	;# 
   819  019C                     	;# 
   820  019D                     	;# 
   821  019E                     	;# 
   822  019F                     	;# 
   823  020C                     	;# 
   824  020D                     	;# 
   825  0211                     	;# 
   826  0211                     	;# 
   827  0212                     	;# 
   828  0212                     	;# 
   829  0213                     	;# 
   830  0213                     	;# 
   831  0214                     	;# 
   832  0214                     	;# 
   833  0215                     	;# 
   834  0215                     	;# 
   835  0215                     	;# 
   836  0216                     	;# 
   837  0216                     	;# 
   838  0217                     	;# 
   839  0217                     	;# 
   840  0391                     	;# 
   841  0392                     	;# 
   842  0393                     	;# 
   843  0394                     	;# 
   844  0395                     	;# 
   845  0396                     	;# 
   846  0498                     	;# 
   847  0498                     	;# 
   848  0499                     	;# 
   849  049A                     	;# 
   850  049B                     	;# 
   851  049B                     	;# 
   852  049C                     	;# 
   853  049E                     	;# 
   854  049F                     	;# 
   855  0611                     	;# 
   856  0612                     	;# 
   857  0613                     	;# 
   858  0613                     	;# 
   859  0614                     	;# 
   860  0615                     	;# 
   861  0616                     	;# 
   862  0616                     	;# 
   863  0617                     	;# 
   864  0618                     	;# 
   865  0619                     	;# 
   866  0619                     	;# 
   867  061A                     	;# 
   868  061B                     	;# 
   869  061C                     	;# 
   870  061C                     	;# 
   871  0691                     	;# 
   872  0692                     	;# 
   873  0693                     	;# 
   874  0694                     	;# 
   875  0695                     	;# 
   876  0F0F                     	;# 
   877  0F10                     	;# 
   878  0F11                     	;# 
   879  0F12                     	;# 
   880  0F13                     	;# 
   881  0F14                     	;# 
   882  0F15                     	;# 
   883  0F16                     	;# 
   884  0F17                     	;# 
   885  0F18                     	;# 
   886  0F19                     	;# 
   887  0F1A                     	;# 
   888  0F1B                     	;# 
   889  0F1C                     	;# 
   890  0F1D                     	;# 
   891  0F1E                     	;# 
   892  0F1F                     	;# 
   893  0F20                     	;# 
   894  0F21                     	;# 
   895  0F22                     	;# 
   896  0F23                     	;# 
   897  0F24                     	;# 
   898  0F25                     	;# 
   899  0F26                     	;# 
   900  0F27                     	;# 
   901  0F28                     	;# 
   902  0F29                     	;# 
   903  0F2A                     	;# 
   904  0F2B                     	;# 
   905  0F2C                     	;# 
   906  0F2D                     	;# 
   907  0F2E                     	;# 
   908  0F2F                     	;# 
   909  0F8C                     	;# 
   910  0F8D                     	;# 
   911  0F91                     	;# 
   912  0F95                     	;# 
   913  0F96                     	;# 
   914  0F97                     	;# 
   915  0F9C                     	;# 
   916  0F9D                     	;# 
   917  0F9E                     	;# 
   918  0FE3                     	;# 
   919  0FE4                     	;# 
   920  0FE5                     	;# 
   921  0FE6                     	;# 
   922  0FE7                     	;# 
   923  0FE8                     	;# 
   924  0FE9                     	;# 
   925  0FEA                     	;# 
   926  0FEB                     	;# 
   927  0FED                     	;# 
   928  0FEE                     	;# 
   929  0FEF                     	;# 
   930  0000                     	;# 
   931  0001                     	;# 
   932  0002                     	;# 
   933  0003                     	;# 
   934  0004                     	;# 
   935  0005                     	;# 
   936  0006                     	;# 
   937  0007                     	;# 
   938  0008                     	;# 
   939  0009                     	;# 
   940  000A                     	;# 
   941  000B                     	;# 
   942  000C                     	;# 
   943  000D                     	;# 
   944  000E                     	;# 
   945  0011                     	;# 
   946  0012                     	;# 
   947  0013                     	;# 
   948  0015                     	;# 
   949  0016                     	;# 
   950  0016                     	;# 
   951  0017                     	;# 
   952  0018                     	;# 
   953  0019                     	;# 
   954  001A                     	;# 
   955  001B                     	;# 
   956  001C                     	;# 
   957  008C                     	;# 
   958  008D                     	;# 
   959  008E                     	;# 
   960  0091                     	;# 
   961  0092                     	;# 
   962  0093                     	;# 
   963  0095                     	;# 
   964  0096                     	;# 
   965  0097                     	;# 
   966  0099                     	;# 
   967  009A                     	;# 
   968  009B                     	;# 
   969  009B                     	;# 
   970  009C                     	;# 
   971  009D                     	;# 
   972  009E                     	;# 
   973  009F                     	;# 
   974  010C                     	;# 
   975  010D                     	;# 
   976  010E                     	;# 
   977  0111                     	;# 
   978  0112                     	;# 
   979  0113                     	;# 
   980  0114                     	;# 
   981  0115                     	;# 
   982  0116                     	;# 
   983  0117                     	;# 
   984  0118                     	;# 
   985  0119                     	;# 
   986  011D                     	;# 
   987  018C                     	;# 
   988  018D                     	;# 
   989  018E                     	;# 
   990  0191                     	;# 
   991  0191                     	;# 
   992  0192                     	;# 
   993  0193                     	;# 
   994  0193                     	;# 
   995  0194                     	;# 
   996  0195                     	;# 
   997  0196                     	;# 
   998  0199                     	;# 
   999  019A                     	;# 
  1000  019B                     	;# 
  1001  019B                     	;# 
  1002  019C                     	;# 
  1003  019D                     	;# 
  1004  019E                     	;# 
  1005  019F                     	;# 
  1006  020C                     	;# 
  1007  020D                     	;# 
  1008  0211                     	;# 
  1009  0211                     	;# 
  1010  0212                     	;# 
  1011  0212                     	;# 
  1012  0213                     	;# 
  1013  0213                     	;# 
  1014  0214                     	;# 
  1015  0214                     	;# 
  1016  0215                     	;# 
  1017  0215                     	;# 
  1018  0215                     	;# 
  1019  0216                     	;# 
  1020  0216                     	;# 
  1021  0217                     	;# 
  1022  0217                     	;# 
  1023  0391                     	;# 
  1024  0392                     	;# 
  1025  0393                     	;# 
  1026  0394                     	;# 
  1027  0395                     	;# 
  1028  0396                     	;# 
  1029  0498                     	;# 
  1030  0498                     	;# 
  1031  0499                     	;# 
  1032  049A                     	;# 
  1033  049B                     	;# 
  1034  049B                     	;# 
  1035  049C                     	;# 
  1036  049E                     	;# 
  1037  049F                     	;# 
  1038  0611                     	;# 
  1039  0612                     	;# 
  1040  0613                     	;# 
  1041  0613                     	;# 
  1042  0614                     	;# 
  1043  0615                     	;# 
  1044  0616                     	;# 
  1045  0616                     	;# 
  1046  0617                     	;# 
  1047  0618                     	;# 
  1048  0619                     	;# 
  1049  0619                     	;# 
  1050  061A                     	;# 
  1051  061B                     	;# 
  1052  061C                     	;# 
  1053  061C                     	;# 
  1054  0691                     	;# 
  1055  0692                     	;# 
  1056  0693                     	;# 
  1057  0694                     	;# 
  1058  0695                     	;# 
  1059  0F0F                     	;# 
  1060  0F10                     	;# 
  1061  0F11                     	;# 
  1062  0F12                     	;# 
  1063  0F13                     	;# 
  1064  0F14                     	;# 
  1065  0F15                     	;# 
  1066  0F16                     	;# 
  1067  0F17                     	;# 
  1068  0F18                     	;# 
  1069  0F19                     	;# 
  1070  0F1A                     	;# 
  1071  0F1B                     	;# 
  1072  0F1C                     	;# 
  1073  0F1D                     	;# 
  1074  0F1E                     	;# 
  1075  0F1F                     	;# 
  1076  0F20                     	;# 
  1077  0F21                     	;# 
  1078  0F22                     	;# 
  1079  0F23                     	;# 
  1080  0F24                     	;# 
  1081  0F25                     	;# 
  1082  0F26                     	;# 
  1083  0F27                     	;# 
  1084  0F28                     	;# 
  1085  0F29                     	;# 
  1086  0F2A                     	;# 
  1087  0F2B                     	;# 
  1088  0F2C                     	;# 
  1089  0F2D                     	;# 
  1090  0F2E                     	;# 
  1091  0F2F                     	;# 
  1092  0F8C                     	;# 
  1093  0F8D                     	;# 
  1094  0F91                     	;# 
  1095  0F95                     	;# 
  1096  0F96                     	;# 
  1097  0F97                     	;# 
  1098  0F9C                     	;# 
  1099  0F9D                     	;# 
  1100  0F9E                     	;# 
  1101  0FE3                     	;# 
  1102  0FE4                     	;# 
  1103  0FE5                     	;# 
  1104  0FE6                     	;# 
  1105  0FE7                     	;# 
  1106  0FE8                     	;# 
  1107  0FE9                     	;# 
  1108  0FEA                     	;# 
  1109  0FEB                     	;# 
  1110  0FED                     	;# 
  1111  0FEE                     	;# 
  1112  0FEF                     	;# 
  1113  0000                     	;# 
  1114  0001                     	;# 
  1115  0002                     	;# 
  1116  0003                     	;# 
  1117  0004                     	;# 
  1118  0005                     	;# 
  1119  0006                     	;# 
  1120  0007                     	;# 
  1121  0008                     	;# 
  1122  0009                     	;# 
  1123  000A                     	;# 
  1124  000B                     	;# 
  1125  000C                     	;# 
  1126  000D                     	;# 
  1127  000E                     	;# 
  1128  0011                     	;# 
  1129  0012                     	;# 
  1130  0013                     	;# 
  1131  0015                     	;# 
  1132  0016                     	;# 
  1133  0016                     	;# 
  1134  0017                     	;# 
  1135  0018                     	;# 
  1136  0019                     	;# 
  1137  001A                     	;# 
  1138  001B                     	;# 
  1139  001C                     	;# 
  1140  008C                     	;# 
  1141  008D                     	;# 
  1142  008E                     	;# 
  1143  0091                     	;# 
  1144  0092                     	;# 
  1145  0093                     	;# 
  1146  0095                     	;# 
  1147  0096                     	;# 
  1148  0097                     	;# 
  1149  0099                     	;# 
  1150  009A                     	;# 
  1151  009B                     	;# 
  1152  009B                     	;# 
  1153  009C                     	;# 
  1154  009D                     	;# 
  1155  009E                     	;# 
  1156  009F                     	;# 
  1157  010C                     	;# 
  1158  010D                     	;# 
  1159  010E                     	;# 
  1160  0111                     	;# 
  1161  0112                     	;# 
  1162  0113                     	;# 
  1163  0114                     	;# 
  1164  0115                     	;# 
  1165  0116                     	;# 
  1166  0117                     	;# 
  1167  0118                     	;# 
  1168  0119                     	;# 
  1169  011D                     	;# 
  1170  018C                     	;# 
  1171  018D                     	;# 
  1172  018E                     	;# 
  1173  0191                     	;# 
  1174  0191                     	;# 
  1175  0192                     	;# 
  1176  0193                     	;# 
  1177  0193                     	;# 
  1178  0194                     	;# 
  1179  0195                     	;# 
  1180  0196                     	;# 
  1181  0199                     	;# 
  1182  019A                     	;# 
  1183  019B                     	;# 
  1184  019B                     	;# 
  1185  019C                     	;# 
  1186  019D                     	;# 
  1187  019E                     	;# 
  1188  019F                     	;# 
  1189  020C                     	;# 
  1190  020D                     	;# 
  1191  0211                     	;# 
  1192  0211                     	;# 
  1193  0212                     	;# 
  1194  0212                     	;# 
  1195  0213                     	;# 
  1196  0213                     	;# 
  1197  0214                     	;# 
  1198  0214                     	;# 
  1199  0215                     	;# 
  1200  0215                     	;# 
  1201  0215                     	;# 
  1202  0216                     	;# 
  1203  0216                     	;# 
  1204  0217                     	;# 
  1205  0217                     	;# 
  1206  0391                     	;# 
  1207  0392                     	;# 
  1208  0393                     	;# 
  1209  0394                     	;# 
  1210  0395                     	;# 
  1211  0396                     	;# 
  1212  0498                     	;# 
  1213  0498                     	;# 
  1214  0499                     	;# 
  1215  049A                     	;# 
  1216  049B                     	;# 
  1217  049B                     	;# 
  1218  049C                     	;# 
  1219  049E                     	;# 
  1220  049F                     	;# 
  1221  0611                     	;# 
  1222  0612                     	;# 
  1223  0613                     	;# 
  1224  0613                     	;# 
  1225  0614                     	;# 
  1226  0615                     	;# 
  1227  0616                     	;# 
  1228  0616                     	;# 
  1229  0617                     	;# 
  1230  0618                     	;# 
  1231  0619                     	;# 
  1232  0619                     	;# 
  1233  061A                     	;# 
  1234  061B                     	;# 
  1235  061C                     	;# 
  1236  061C                     	;# 
  1237  0691                     	;# 
  1238  0692                     	;# 
  1239  0693                     	;# 
  1240  0694                     	;# 
  1241  0695                     	;# 
  1242  0F0F                     	;# 
  1243  0F10                     	;# 
  1244  0F11                     	;# 
  1245  0F12                     	;# 
  1246  0F13                     	;# 
  1247  0F14                     	;# 
  1248  0F15                     	;# 
  1249  0F16                     	;# 
  1250  0F17                     	;# 
  1251  0F18                     	;# 
  1252  0F19                     	;# 
  1253  0F1A                     	;# 
  1254  0F1B                     	;# 
  1255  0F1C                     	;# 
  1256  0F1D                     	;# 
  1257  0F1E                     	;# 
  1258  0F1F                     	;# 
  1259  0F20                     	;# 
  1260  0F21                     	;# 
  1261  0F22                     	;# 
  1262  0F23                     	;# 
  1263  0F24                     	;# 
  1264  0F25                     	;# 
  1265  0F26                     	;# 
  1266  0F27                     	;# 
  1267  0F28                     	;# 
  1268  0F29                     	;# 
  1269  0F2A                     	;# 
  1270  0F2B                     	;# 
  1271  0F2C                     	;# 
  1272  0F2D                     	;# 
  1273  0F2E                     	;# 
  1274  0F2F                     	;# 
  1275  0F8C                     	;# 
  1276  0F8D                     	;# 
  1277  0F91                     	;# 
  1278  0F95                     	;# 
  1279  0F96                     	;# 
  1280  0F97                     	;# 
  1281  0F9C                     	;# 
  1282  0F9D                     	;# 
  1283  0F9E                     	;# 
  1284  0FE3                     	;# 
  1285  0FE4                     	;# 
  1286  0FE5                     	;# 
  1287  0FE6                     	;# 
  1288  0FE7                     	;# 
  1289  0FE8                     	;# 
  1290  0FE9                     	;# 
  1291  0FEA                     	;# 
  1292  0FEB                     	;# 
  1293  0FED                     	;# 
  1294  0FEE                     	;# 
  1295  0FEF                     	;# 
  1296  0000                     	;# 
  1297  0001                     	;# 
  1298  0002                     	;# 
  1299  0003                     	;# 
  1300  0004                     	;# 
  1301  0005                     	;# 
  1302  0006                     	;# 
  1303  0007                     	;# 
  1304  0008                     	;# 
  1305  0009                     	;# 
  1306  000A                     	;# 
  1307  000B                     	;# 
  1308  000C                     	;# 
  1309  000D                     	;# 
  1310  000E                     	;# 
  1311  0011                     	;# 
  1312  0012                     	;# 
  1313  0013                     	;# 
  1314  0015                     	;# 
  1315  0016                     	;# 
  1316  0016                     	;# 
  1317  0017                     	;# 
  1318  0018                     	;# 
  1319  0019                     	;# 
  1320  001A                     	;# 
  1321  001B                     	;# 
  1322  001C                     	;# 
  1323  008C                     	;# 
  1324  008D                     	;# 
  1325  008E                     	;# 
  1326  0091                     	;# 
  1327  0092                     	;# 
  1328  0093                     	;# 
  1329  0095                     	;# 
  1330  0096                     	;# 
  1331  0097                     	;# 
  1332  0099                     	;# 
  1333  009A                     	;# 
  1334  009B                     	;# 
  1335  009B                     	;# 
  1336  009C                     	;# 
  1337  009D                     	;# 
  1338  009E                     	;# 
  1339  009F                     	;# 
  1340  010C                     	;# 
  1341  010D                     	;# 
  1342  010E                     	;# 
  1343  0111                     	;# 
  1344  0112                     	;# 
  1345  0113                     	;# 
  1346  0114                     	;# 
  1347  0115                     	;# 
  1348  0116                     	;# 
  1349  0117                     	;# 
  1350  0118                     	;# 
  1351  0119                     	;# 
  1352  011D                     	;# 
  1353  018C                     	;# 
  1354  018D                     	;# 
  1355  018E                     	;# 
  1356  0191                     	;# 
  1357  0191                     	;# 
  1358  0192                     	;# 
  1359  0193                     	;# 
  1360  0193                     	;# 
  1361  0194                     	;# 
  1362  0195                     	;# 
  1363  0196                     	;# 
  1364  0199                     	;# 
  1365  019A                     	;# 
  1366  019B                     	;# 
  1367  019B                     	;# 
  1368  019C                     	;# 
  1369  019D                     	;# 
  1370  019E                     	;# 
  1371  019F                     	;# 
  1372  020C                     	;# 
  1373  020D                     	;# 
  1374  0211                     	;# 
  1375  0211                     	;# 
  1376  0212                     	;# 
  1377  0212                     	;# 
  1378  0213                     	;# 
  1379  0213                     	;# 
  1380  0214                     	;# 
  1381  0214                     	;# 
  1382  0215                     	;# 
  1383  0215                     	;# 
  1384  0215                     	;# 
  1385  0216                     	;# 
  1386  0216                     	;# 
  1387  0217                     	;# 
  1388  0217                     	;# 
  1389  0391                     	;# 
  1390  0392                     	;# 
  1391  0393                     	;# 
  1392  0394                     	;# 
  1393  0395                     	;# 
  1394  0396                     	;# 
  1395  0498                     	;# 
  1396  0498                     	;# 
  1397  0499                     	;# 
  1398  049A                     	;# 
  1399  049B                     	;# 
  1400  049B                     	;# 
  1401  049C                     	;# 
  1402  049E                     	;# 
  1403  049F                     	;# 
  1404  0611                     	;# 
  1405  0612                     	;# 
  1406  0613                     	;# 
  1407  0613                     	;# 
  1408  0614                     	;# 
  1409  0615                     	;# 
  1410  0616                     	;# 
  1411  0616                     	;# 
  1412  0617                     	;# 
  1413  0618                     	;# 
  1414  0619                     	;# 
  1415  0619                     	;# 
  1416  061A                     	;# 
  1417  061B                     	;# 
  1418  061C                     	;# 
  1419  061C                     	;# 
  1420  0691                     	;# 
  1421  0692                     	;# 
  1422  0693                     	;# 
  1423  0694                     	;# 
  1424  0695                     	;# 
  1425  0F0F                     	;# 
  1426  0F10                     	;# 
  1427  0F11                     	;# 
  1428  0F12                     	;# 
  1429  0F13                     	;# 
  1430  0F14                     	;# 
  1431  0F15                     	;# 
  1432  0F16                     	;# 
  1433  0F17                     	;# 
  1434  0F18                     	;# 
  1435  0F19                     	;# 
  1436  0F1A                     	;# 
  1437  0F1B                     	;# 
  1438  0F1C                     	;# 
  1439  0F1D                     	;# 
  1440  0F1E                     	;# 
  1441  0F1F                     	;# 
  1442  0F20                     	;# 
  1443  0F21                     	;# 
  1444  0F22                     	;# 
  1445  0F23                     	;# 
  1446  0F24                     	;# 
  1447  0F25                     	;# 
  1448  0F26                     	;# 
  1449  0F27                     	;# 
  1450  0F28                     	;# 
  1451  0F29                     	;# 
  1452  0F2A                     	;# 
  1453  0F2B                     	;# 
  1454  0F2C                     	;# 
  1455  0F2D                     	;# 
  1456  0F2E                     	;# 
  1457  0F2F                     	;# 
  1458  0F8C                     	;# 
  1459  0F8D                     	;# 
  1460  0F91                     	;# 
  1461  0F95                     	;# 
  1462  0F96                     	;# 
  1463  0F97                     	;# 
  1464  0F9C                     	;# 
  1465  0F9D                     	;# 
  1466  0F9E                     	;# 
  1467  0FE3                     	;# 
  1468  0FE4                     	;# 
  1469  0FE5                     	;# 
  1470  0FE6                     	;# 
  1471  0FE7                     	;# 
  1472  0FE8                     	;# 
  1473  0FE9                     	;# 
  1474  0FEA                     	;# 
  1475  0FEB                     	;# 
  1476  0FED                     	;# 
  1477  0FEE                     	;# 
  1478  0FEF                     	;# 
  1479  0000                     	;# 
  1480  0001                     	;# 
  1481  0002                     	;# 
  1482  0003                     	;# 
  1483  0004                     	;# 
  1484  0005                     	;# 
  1485  0006                     	;# 
  1486  0007                     	;# 
  1487  0008                     	;# 
  1488  0009                     	;# 
  1489  000A                     	;# 
  1490  000B                     	;# 
  1491  000C                     	;# 
  1492  000D                     	;# 
  1493  000E                     	;# 
  1494  0011                     	;# 
  1495  0012                     	;# 
  1496  0013                     	;# 
  1497  0015                     	;# 
  1498  0016                     	;# 
  1499  0016                     	;# 
  1500  0017                     	;# 
  1501  0018                     	;# 
  1502  0019                     	;# 
  1503  001A                     	;# 
  1504  001B                     	;# 
  1505  001C                     	;# 
  1506  008C                     	;# 
  1507  008D                     	;# 
  1508  008E                     	;# 
  1509  0091                     	;# 
  1510  0092                     	;# 
  1511  0093                     	;# 
  1512  0095                     	;# 
  1513  0096                     	;# 
  1514  0097                     	;# 
  1515  0099                     	;# 
  1516  009A                     	;# 
  1517  009B                     	;# 
  1518  009B                     	;# 
  1519  009C                     	;# 
  1520  009D                     	;# 
  1521  009E                     	;# 
  1522  009F                     	;# 
  1523  010C                     	;# 
  1524  010D                     	;# 
  1525  010E                     	;# 
  1526  0111                     	;# 
  1527  0112                     	;# 
  1528  0113                     	;# 
  1529  0114                     	;# 
  1530  0115                     	;# 
  1531  0116                     	;# 
  1532  0117                     	;# 
  1533  0118                     	;# 
  1534  0119                     	;# 
  1535  011D                     	;# 
  1536  018C                     	;# 
  1537  018D                     	;# 
  1538  018E                     	;# 
  1539  0191                     	;# 
  1540  0191                     	;# 
  1541  0192                     	;# 
  1542  0193                     	;# 
  1543  0193                     	;# 
  1544  0194                     	;# 
  1545  0195                     	;# 
  1546  0196                     	;# 
  1547  0199                     	;# 
  1548  019A                     	;# 
  1549  019B                     	;# 
  1550  019B                     	;# 
  1551  019C                     	;# 
  1552  019D                     	;# 
  1553  019E                     	;# 
  1554  019F                     	;# 
  1555  020C                     	;# 
  1556  020D                     	;# 
  1557  0211                     	;# 
  1558  0211                     	;# 
  1559  0212                     	;# 
  1560  0212                     	;# 
  1561  0213                     	;# 
  1562  0213                     	;# 
  1563  0214                     	;# 
  1564  0214                     	;# 
  1565  0215                     	;# 
  1566  0215                     	;# 
  1567  0215                     	;# 
  1568  0216                     	;# 
  1569  0216                     	;# 
  1570  0217                     	;# 
  1571  0217                     	;# 
  1572  0391                     	;# 
  1573  0392                     	;# 
  1574  0393                     	;# 
  1575  0394                     	;# 
  1576  0395                     	;# 
  1577  0396                     	;# 
  1578  0498                     	;# 
  1579  0498                     	;# 
  1580  0499                     	;# 
  1581  049A                     	;# 
  1582  049B                     	;# 
  1583  049B                     	;# 
  1584  049C                     	;# 
  1585  049E                     	;# 
  1586  049F                     	;# 
  1587  0611                     	;# 
  1588  0612                     	;# 
  1589  0613                     	;# 
  1590  0613                     	;# 
  1591  0614                     	;# 
  1592  0615                     	;# 
  1593  0616                     	;# 
  1594  0616                     	;# 
  1595  0617                     	;# 
  1596  0618                     	;# 
  1597  0619                     	;# 
  1598  0619                     	;# 
  1599  061A                     	;# 
  1600  061B                     	;# 
  1601  061C                     	;# 
  1602  061C                     	;# 
  1603  0691                     	;# 
  1604  0692                     	;# 
  1605  0693                     	;# 
  1606  0694                     	;# 
  1607  0695                     	;# 
  1608  0F0F                     	;# 
  1609  0F10                     	;# 
  1610  0F11                     	;# 
  1611  0F12                     	;# 
  1612  0F13                     	;# 
  1613  0F14                     	;# 
  1614  0F15                     	;# 
  1615  0F16                     	;# 
  1616  0F17                     	;# 
  1617  0F18                     	;# 
  1618  0F19                     	;# 
  1619  0F1A                     	;# 
  1620  0F1B                     	;# 
  1621  0F1C                     	;# 
  1622  0F1D                     	;# 
  1623  0F1E                     	;# 
  1624  0F1F                     	;# 
  1625  0F20                     	;# 
  1626  0F21                     	;# 
  1627  0F22                     	;# 
  1628  0F23                     	;# 
  1629  0F24                     	;# 
  1630  0F25                     	;# 
  1631  0F26                     	;# 
  1632  0F27                     	;# 
  1633  0F28                     	;# 
  1634  0F29                     	;# 
  1635  0F2A                     	;# 
  1636  0F2B                     	;# 
  1637  0F2C                     	;# 
  1638  0F2D                     	;# 
  1639  0F2E                     	;# 
  1640  0F2F                     	;# 
  1641  0F8C                     	;# 
  1642  0F8D                     	;# 
  1643  0F91                     	;# 
  1644  0F95                     	;# 
  1645  0F96                     	;# 
  1646  0F97                     	;# 
  1647  0F9C                     	;# 
  1648  0F9D                     	;# 
  1649  0F9E                     	;# 
  1650  0FE3                     	;# 
  1651  0FE4                     	;# 
  1652  0FE5                     	;# 
  1653  0FE6                     	;# 
  1654  0FE7                     	;# 
  1655  0FE8                     	;# 
  1656  0FE9                     	;# 
  1657  0FEA                     	;# 
  1658  0FEB                     	;# 
  1659  0FED                     	;# 
  1660  0FEE                     	;# 
  1661  0FEF                     	;# 
  1662  0000                     	;# 
  1663  0001                     	;# 
  1664  0002                     	;# 
  1665  0003                     	;# 
  1666  0004                     	;# 
  1667  0005                     	;# 
  1668  0006                     	;# 
  1669  0007                     	;# 
  1670  0008                     	;# 
  1671  0009                     	;# 
  1672  000A                     	;# 
  1673  000B                     	;# 
  1674  000C                     	;# 
  1675  000D                     	;# 
  1676  000E                     	;# 
  1677  0011                     	;# 
  1678  0012                     	;# 
  1679  0013                     	;# 
  1680  0015                     	;# 
  1681  0016                     	;# 
  1682  0016                     	;# 
  1683  0017                     	;# 
  1684  0018                     	;# 
  1685  0019                     	;# 
  1686  001A                     	;# 
  1687  001B                     	;# 
  1688  001C                     	;# 
  1689  008C                     	;# 
  1690  008D                     	;# 
  1691  008E                     	;# 
  1692  0091                     	;# 
  1693  0092                     	;# 
  1694  0093                     	;# 
  1695  0095                     	;# 
  1696  0096                     	;# 
  1697  0097                     	;# 
  1698  0099                     	;# 
  1699  009A                     	;# 
  1700  009B                     	;# 
  1701  009B                     	;# 
  1702  009C                     	;# 
  1703  009D                     	;# 
  1704  009E                     	;# 
  1705  009F                     	;# 
  1706  010C                     	;# 
  1707  010D                     	;# 
  1708  010E                     	;# 
  1709  0111                     	;# 
  1710  0112                     	;# 
  1711  0113                     	;# 
  1712  0114                     	;# 
  1713  0115                     	;# 
  1714  0116                     	;# 
  1715  0117                     	;# 
  1716  0118                     	;# 
  1717  0119                     	;# 
  1718  011D                     	;# 
  1719  018C                     	;# 
  1720  018D                     	;# 
  1721  018E                     	;# 
  1722  0191                     	;# 
  1723  0191                     	;# 
  1724  0192                     	;# 
  1725  0193                     	;# 
  1726  0193                     	;# 
  1727  0194                     	;# 
  1728  0195                     	;# 
  1729  0196                     	;# 
  1730  0199                     	;# 
  1731  019A                     	;# 
  1732  019B                     	;# 
  1733  019B                     	;# 
  1734  019C                     	;# 
  1735  019D                     	;# 
  1736  019E                     	;# 
  1737  019F                     	;# 
  1738  020C                     	;# 
  1739  020D                     	;# 
  1740  0211                     	;# 
  1741  0211                     	;# 
  1742  0212                     	;# 
  1743  0212                     	;# 
  1744  0213                     	;# 
  1745  0213                     	;# 
  1746  0214                     	;# 
  1747  0214                     	;# 
  1748  0215                     	;# 
  1749  0215                     	;# 
  1750  0215                     	;# 
  1751  0216                     	;# 
  1752  0216                     	;# 
  1753  0217                     	;# 
  1754  0217                     	;# 
  1755  0391                     	;# 
  1756  0392                     	;# 
  1757  0393                     	;# 
  1758  0394                     	;# 
  1759  0395                     	;# 
  1760  0396                     	;# 
  1761  0498                     	;# 
  1762  0498                     	;# 
  1763  0499                     	;# 
  1764  049A                     	;# 
  1765  049B                     	;# 
  1766  049B                     	;# 
  1767  049C                     	;# 
  1768  049E                     	;# 
  1769  049F                     	;# 
  1770  0611                     	;# 
  1771  0612                     	;# 
  1772  0613                     	;# 
  1773  0613                     	;# 
  1774  0614                     	;# 
  1775  0615                     	;# 
  1776  0616                     	;# 
  1777  0616                     	;# 
  1778  0617                     	;# 
  1779  0618                     	;# 
  1780  0619                     	;# 
  1781  0619                     	;# 
  1782  061A                     	;# 
  1783  061B                     	;# 
  1784  061C                     	;# 
  1785  061C                     	;# 
  1786  0691                     	;# 
  1787  0692                     	;# 
  1788  0693                     	;# 
  1789  0694                     	;# 
  1790  0695                     	;# 
  1791  0F0F                     	;# 
  1792  0F10                     	;# 
  1793  0F11                     	;# 
  1794  0F12                     	;# 
  1795  0F13                     	;# 
  1796  0F14                     	;# 
  1797  0F15                     	;# 
  1798  0F16                     	;# 
  1799  0F17                     	;# 
  1800  0F18                     	;# 
  1801  0F19                     	;# 
  1802  0F1A                     	;# 
  1803  0F1B                     	;# 
  1804  0F1C                     	;# 
  1805  0F1D                     	;# 
  1806  0F1E                     	;# 
  1807  0F1F                     	;# 
  1808  0F20                     	;# 
  1809  0F21                     	;# 
  1810  0F22                     	;# 
  1811  0F23                     	;# 
  1812  0F24                     	;# 
  1813  0F25                     	;# 
  1814  0F26                     	;# 
  1815  0F27                     	;# 
  1816  0F28                     	;# 
  1817  0F29                     	;# 
  1818  0F2A                     	;# 
  1819  0F2B                     	;# 
  1820  0F2C                     	;# 
  1821  0F2D                     	;# 
  1822  0F2E                     	;# 
  1823  0F2F                     	;# 
  1824  0F8C                     	;# 
  1825  0F8D                     	;# 
  1826  0F91                     	;# 
  1827  0F95                     	;# 
  1828  0F96                     	;# 
  1829  0F97                     	;# 
  1830  0F9C                     	;# 
  1831  0F9D                     	;# 
  1832  0F9E                     	;# 
  1833  0FE3                     	;# 
  1834  0FE4                     	;# 
  1835  0FE5                     	;# 
  1836  0FE6                     	;# 
  1837  0FE7                     	;# 
  1838  0FE8                     	;# 
  1839  0FE9                     	;# 
  1840  0FEA                     	;# 
  1841  0FEB                     	;# 
  1842  0FED                     	;# 
  1843  0FEE                     	;# 
  1844  0FEF                     	;# 
  1845  0000                     	;# 
  1846  0001                     	;# 
  1847  0002                     	;# 
  1848  0003                     	;# 
  1849  0004                     	;# 
  1850  0005                     	;# 
  1851  0006                     	;# 
  1852  0007                     	;# 
  1853  0008                     	;# 
  1854  0009                     	;# 
  1855  000A                     	;# 
  1856  000B                     	;# 
  1857  000C                     	;# 
  1858  000D                     	;# 
  1859  000E                     	;# 
  1860  0011                     	;# 
  1861  0012                     	;# 
  1862  0013                     	;# 
  1863  0015                     	;# 
  1864  0016                     	;# 
  1865  0016                     	;# 
  1866  0017                     	;# 
  1867  0018                     	;# 
  1868  0019                     	;# 
  1869  001A                     	;# 
  1870  001B                     	;# 
  1871  001C                     	;# 
  1872  008C                     	;# 
  1873  008D                     	;# 
  1874  008E                     	;# 
  1875  0091                     	;# 
  1876  0092                     	;# 
  1877  0093                     	;# 
  1878  0095                     	;# 
  1879  0096                     	;# 
  1880  0097                     	;# 
  1881  0099                     	;# 
  1882  009A                     	;# 
  1883  009B                     	;# 
  1884  009B                     	;# 
  1885  009C                     	;# 
  1886  009D                     	;# 
  1887  009E                     	;# 
  1888  009F                     	;# 
  1889  010C                     	;# 
  1890  010D                     	;# 
  1891  010E                     	;# 
  1892  0111                     	;# 
  1893  0112                     	;# 
  1894  0113                     	;# 
  1895  0114                     	;# 
  1896  0115                     	;# 
  1897  0116                     	;# 
  1898  0117                     	;# 
  1899  0118                     	;# 
  1900  0119                     	;# 
  1901  011D                     	;# 
  1902  018C                     	;# 
  1903  018D                     	;# 
  1904  018E                     	;# 
  1905  0191                     	;# 
  1906  0191                     	;# 
  1907  0192                     	;# 
  1908  0193                     	;# 
  1909  0193                     	;# 
  1910  0194                     	;# 
  1911  0195                     	;# 
  1912  0196                     	;# 
  1913  0199                     	;# 
  1914  019A                     	;# 
  1915  019B                     	;# 
  1916  019B                     	;# 
  1917  019C                     	;# 
  1918  019D                     	;# 
  1919  019E                     	;# 
  1920  019F                     	;# 
  1921  020C                     	;# 
  1922  020D                     	;# 
  1923  0211                     	;# 
  1924  0211                     	;# 
  1925  0212                     	;# 
  1926  0212                     	;# 
  1927  0213                     	;# 
  1928  0213                     	;# 
  1929  0214                     	;# 
  1930  0214                     	;# 
  1931  0215                     	;# 
  1932  0215                     	;# 
  1933  0215                     	;# 
  1934  0216                     	;# 
  1935  0216                     	;# 
  1936  0217                     	;# 
  1937  0217                     	;# 
  1938  0391                     	;# 
  1939  0392                     	;# 
  1940  0393                     	;# 
  1941  0394                     	;# 
  1942  0395                     	;# 
  1943  0396                     	;# 
  1944  0498                     	;# 
  1945  0498                     	;# 
  1946  0499                     	;# 
  1947  049A                     	;# 
  1948  049B                     	;# 
  1949  049B                     	;# 
  1950  049C                     	;# 
  1951  049E                     	;# 
  1952  049F                     	;# 
  1953  0611                     	;# 
  1954  0612                     	;# 
  1955  0613                     	;# 
  1956  0613                     	;# 
  1957  0614                     	;# 
  1958  0615                     	;# 
  1959  0616                     	;# 
  1960  0616                     	;# 
  1961  0617                     	;# 
  1962  0618                     	;# 
  1963  0619                     	;# 
  1964  0619                     	;# 
  1965  061A                     	;# 
  1966  061B                     	;# 
  1967  061C                     	;# 
  1968  061C                     	;# 
  1969  0691                     	;# 
  1970  0692                     	;# 
  1971  0693                     	;# 
  1972  0694                     	;# 
  1973  0695                     	;# 
  1974  0F0F                     	;# 
  1975  0F10                     	;# 
  1976  0F11                     	;# 
  1977  0F12                     	;# 
  1978  0F13                     	;# 
  1979  0F14                     	;# 
  1980  0F15                     	;# 
  1981  0F16                     	;# 
  1982  0F17                     	;# 
  1983  0F18                     	;# 
  1984  0F19                     	;# 
  1985  0F1A                     	;# 
  1986  0F1B                     	;# 
  1987  0F1C                     	;# 
  1988  0F1D                     	;# 
  1989  0F1E                     	;# 
  1990  0F1F                     	;# 
  1991  0F20                     	;# 
  1992  0F21                     	;# 
  1993  0F22                     	;# 
  1994  0F23                     	;# 
  1995  0F24                     	;# 
  1996  0F25                     	;# 
  1997  0F26                     	;# 
  1998  0F27                     	;# 
  1999  0F28                     	;# 
  2000  0F29                     	;# 
  2001  0F2A                     	;# 
  2002  0F2B                     	;# 
  2003  0F2C                     	;# 
  2004  0F2D                     	;# 
  2005  0F2E                     	;# 
  2006  0F2F                     	;# 
  2007  0F8C                     	;# 
  2008  0F8D                     	;# 
  2009  0F91                     	;# 
  2010  0F95                     	;# 
  2011  0F96                     	;# 
  2012  0F97                     	;# 
  2013  0F9C                     	;# 
  2014  0F9D                     	;# 
  2015  0F9E                     	;# 
  2016  0FE3                     	;# 
  2017  0FE4                     	;# 
  2018  0FE5                     	;# 
  2019  0FE6                     	;# 
  2020  0FE7                     	;# 
  2021  0FE8                     	;# 
  2022  0FE9                     	;# 
  2023  0FEA                     	;# 
  2024  0FEB                     	;# 
  2025  0FED                     	;# 
  2026  0FEE                     	;# 
  2027  0FEF                     	;# 
  2028                           
  2029                           	psect	strings
  2030  021E                     __pstrings:	
  2031  021E                     __stringtab:	
  2032  021E  3400               	retlw	0
  2033  021F                     __end_of__stringtab:	
  2034  021F                     _mrfRegset_InitCnt:	
  2035  021F  3410               	retlw	16
  2036  0220                     __end_of_mrfRegset_InitCnt:	
  2037  0220                     _mrfRegset_RxCnt:	
  2038  0220  3406               	retlw	6
  2039  0221                     __end_of_mrfRegset_RxCnt:	
  2040  0221                     _mrfRegset_TxCnt:	
  2041  0221  3404               	retlw	4
  2042  0222                     __end_of_mrfRegset_TxCnt:	
  2043  0222                     _mrfRegset_Init:	
  2044  0222  34CA               	retlw	202
  2045  0223  3481               	retlw	129
  2046  0224  34CA               	retlw	202
  2047  0225  3483               	retlw	131
  2048  0226  3480               	retlw	128
  2049  0227  3428               	retlw	40
  2050  0228  34C4               	retlw	196
  2051  0229  34D7               	retlw	215
  2052  022A  34A8               	retlw	168
  2053  022B  3460               	retlw	96
  2054  022C  34C6               	retlw	198
  2055  022D  3411               	retlw	17
  2056  022E  3482               	retlw	130
  2057  022F  3400               	retlw	0
  2058  0230  3490               	retlw	144
  2059  0231  3462               	retlw	98
  2060  0232  3498               	retlw	152
  2061  0233  3490               	retlw	144
  2062  0234  34C2               	retlw	194
  2063  0235  34AC               	retlw	172
  2064  0236  3482               	retlw	130
  2065  0237  3478               	retlw	120
  2066  0238  3455               	retlw	85
  2067  0239  3400               	retlw	0
  2068  023A  3482               	retlw	130
  2069  023B  34D8               	retlw	216
  2070  023C  3480               	retlw	128
  2071  023D  3468               	retlw	104
  2072  023E  34CA               	retlw	202
  2073  023F  3481               	retlw	129
  2074  0240  34CA               	retlw	202
  2075  0241  3483               	retlw	131
  2076  0242                     __end_of_mrfRegset_Init:	
  2077  0242                     _mrfRegset_Rx:	
  2078  0242  3482               	retlw	130
  2079  0243  3400               	retlw	0
  2080  0244  34CA               	retlw	202
  2081  0245  3481               	retlw	129
  2082  0246  3480               	retlw	128
  2083  0247  3428               	retlw	40
  2084  0248  3482               	retlw	130
  2085  0249  34D8               	retlw	216
  2086  024A  3480               	retlw	128
  2087  024B  3468               	retlw	104
  2088  024C  34CA               	retlw	202
  2089  024D  3483               	retlw	131
  2090  024E                     __end_of_mrfRegset_Rx:	
  2091  024E                     _mrfRegset_Tx:	
  2092  024E  3482               	retlw	130
  2093  024F  3400               	retlw	0
  2094  0250  3480               	retlw	128
  2095  0251  3428               	retlw	40
  2096  0252  3482               	retlw	130
  2097  0253  3478               	retlw	120
  2098  0254  3480               	retlw	128
  2099  0255  34A8               	retlw	168
  2100  0256                     __end_of_mrfRegset_Tx:	
  2101  000B                     _INTCONbits	set	11
  2102  000C                     _PORTAbits	set	12
  2103  000E                     _PORTCbits	set	14
  2104  0095                     _OPTION_REGbits	set	149
  2105  0099                     _OSCCON	set	153
  2106  008C                     _TRISAbits	set	140
  2107  008D                     _TRISBbits	set	141
  2108  008E                     _TRISCbits	set	142
  2109  010C                     _LATAbits	set	268
  2110  010D                     _LATBbits	set	269
  2111  010E                     _LATCbits	set	270
  2112  020C                     _WPUAbits	set	524
  2113                           
  2114                           	psect	cinit
  2115  0016                     start_initialization:	
  2116                           ; #config settings
  2117                           
  2118  0016                     __initialization:	
  2119  0016  3020               	movlw	low __pbssBANK0
  2120                           
  2121                           ; Clear objects allocated to COMMON
  2122  0017  01F8               	clrf	__pbssCOMMON& (0+127)
  2123  0018  01F9               	clrf	(__pbssCOMMON+1)& (0+127)
  2124                           
  2125                           ; Clear objects allocated to BANK0
  2126  0019  0084               	movwf	4
  2127  001A  3000               	movlw	high __pbssBANK0
  2128  001B  0085               	movwf	5
  2129  001C  3045               	movlw	69
  2130  001D  3182  2256  3180   	fcall	clear_ram0
  2131  0020                     end_of_initialization:	
  2132                           ;End of C runtime variable initialization code
  2133                           
  2134  0020                     __end_of__initialization:	
  2135  0020  0020               	movlb	0
  2136  0021  2849               	ljmp	_main	;jump to C main() function
  2137  0022                     __ptext3:	
  2138 ;; *************** function _Mrf49xaModeRx *****************
  2139 ;; Defined at:
  2140 ;;		line 190 in file "../../../src/devices/mrf49xa.c"
  2141 ;; Parameters:    Size  Location     Type
  2142 ;;		None
  2143 ;; Auto vars:     Size  Location     Type
  2144 ;;  k               1    1[BANK0 ] unsigned char 
  2145 ;; Return value:  Size  Location     Type
  2146 ;;		None               void
  2147 ;; Registers used:
  2148 ;;		wreg, fsr0l, fsr0h, fsr1l, fsr1h, fsr1l, fsr1h, status,2, status,0, btemp+1, pclath, cstack
  2149 ;; Tracked objects:
  2150 ;;		On entry : 1F/0
  2151 ;;		On exit  : 1F/0
  2152 ;;		Unchanged: 0/0
  2153 ;; Data sizes:     COMMON   BANK0   BANK1   BANK2
  2154 ;;      Params:         0       0       0       0
  2155 ;;      Locals:         0       1       0       0
  2156 ;;      Temps:          0       0       0       0
  2157 ;;      Totals:         0       1       0       0
  2158 ;;Total ram usage:        1 bytes
  2159 ;; Hardware stack levels used:    1
  2160 ;; Hardware stack levels required when called:    8
  2161 ;; This function calls:
  2162 ;;		_Mrf49TxCmd
  2163 ;; This function is called by:
  2164 ;;		_Mrf49xaInit
  2165 ;; This function uses a non-reentrant model
  2166 ;;
  2167                           
  2168                           
  2169                           ;psect for function _Mrf49xaModeRx
  2170  0022                     _Mrf49xaModeRx:	
  2171  0022                     l1111:	
  2172                           ;incstack = 0
  2173                           ; Regs used in _Mrf49xaModeRx: [allreg]
  2174                           
  2175  0022  3020               	movlw	low (_mrfRegset_RxCnt| (0+32768))
  2176                           
  2177                           ;mrf49xa.c: 192: UI08_t k;
  2178                           ;mrf49xa.c: 193: for (k = 0; k < mrfRegset_RxCnt; k++) { if (mrfRegset_Rx[k].reg != 0x55
      +                          ) Mrf49TxCmd(mrfRegset_Rx[k].reg, mrfRegset_Rx[k].val); };
  2179  0023  01E6               	clrf	Mrf49xaModeRx@k
  2180  0024  3182               	movlp	high __stringtab
  2181  0025  000A               	callw
  2182  0026  3180               	pagesel	$	;select current page
  2183  0027  3800               	iorlw	0
  2184  0028  1903               	btfsc	3,2
  2185  0029  2847               	goto	l1125
  2186  002A                     l1117:	
  2187  002A  3566               	lslf	Mrf49xaModeRx@k,w
  2188  002B  3E42               	addlw	low (_mrfRegset_Rx| (0+32768))
  2189  002C  3182               	movlp	high __stringtab
  2190  002D  000A               	callw
  2191  002E  3180               	pagesel	$	;select current page
  2192  002F  3A55               	xorlw	85
  2193  0030  1903               	skipnz
  2194  0031  283E               	goto	l1121
  2195  0032  3566               	lslf	Mrf49xaModeRx@k,w
  2196  0033  3E43               	addlw	low ((_mrfRegset_Rx| (0+32768)+1))
  2197  0034  3182               	movlp	high __stringtab
  2198  0035  000A               	callw
  2199  0036  3180               	pagesel	$	;select current page
  2200  0037  00F7               	movwf	Mrf49TxCmd@val
  2201  0038  3566               	lslf	Mrf49xaModeRx@k,w
  2202  0039  3E42               	addlw	low (_mrfRegset_Rx| (0+32768))
  2203  003A  3182               	movlp	high __stringtab
  2204  003B  000A               	callw
  2205  003C  3180               	pagesel	$	;select current page
  2206  003D  20AD               	fcall	_Mrf49TxCmd
  2207  003E                     l1121:	
  2208  003E  0020               	movlb	0	; select bank0
  2209  003F  3020               	movlw	low (_mrfRegset_RxCnt| (0+32768))
  2210  0040  0AE6               	incf	Mrf49xaModeRx@k,f
  2211  0041  3182               	movlp	high __stringtab
  2212  0042  000A               	callw
  2213  0043  3180               	pagesel	$	;select current page
  2214  0044  0266               	subwf	Mrf49xaModeRx@k,w
  2215  0045  1C03               	skipc
  2216  0046  282A               	goto	l1117
  2217  0047                     l1125:	
  2218                           
  2219                           ;mrf49xa.c: 195: rfTrcvStatus.state = RECV_IDLE;
  2220  0047  01A0               	clrf	_rfTrcvStatus
  2221  0048  0008               	return
  2222  0049                     __end_of_Mrf49xaModeRx:	
  2223  0049                     __pmaintext:	
  2224 ;;
  2225 ;;Main: autosize = 0, tempsize = 0, incstack = 0, save=0
  2226 ;;
  2227 ;; *************** function _main *****************
  2228 ;; Defined at:
  2229 ;;		line 30 in file "../../../src/node/main.c"
  2230 ;; Parameters:    Size  Location     Type
  2231 ;;		None
  2232 ;; Auto vars:     Size  Location     Type
  2233 ;;  i               1    6[BANK0 ] unsigned char 
  2234 ;;  j               1    5[BANK0 ] unsigned char 
  2235 ;; Return value:  Size  Location     Type
  2236 ;;		None               void
  2237 ;; Registers used:
  2238 ;;		wreg, fsr0l, fsr0h, fsr1l, fsr1h, fsr1l, fsr1h, status,2, status,0, btemp+1, pclath, cstack
  2239 ;; Tracked objects:
  2240 ;;		On entry : 17F/0
  2241 ;;		On exit  : 1F/0
  2242 ;;		Unchanged: 0/0
  2243 ;; Data sizes:     COMMON   BANK0   BANK1   BANK2
  2244 ;;      Params:         0       0       0       0
  2245 ;;      Locals:         0       2       0       0
  2246 ;;      Temps:          0       0       0       0
  2247 ;;      Totals:         0       2       0       0
  2248 ;;Total ram usage:        2 bytes
  2249 ;; Hardware stack levels required when called:   10
  2250 ;; This function calls:
  2251 ;;		_ExtIntInit
  2252 ;;		_Mrf49xaInit
  2253 ;;		_SysInitGpio
  2254 ;; This function is called by:
  2255 ;;		Startup code after reset
  2256 ;; This function uses a non-reentrant model
  2257 ;;
  2258                           
  2259                           
  2260                           ;psect for function _main
  2261  0049                     _main:	
  2262                           
  2263                           ;main.c: 33: OSCCON = 0b01111000;
  2264                           
  2265                           ;incstack = 0
  2266                           ; Regs used in _main: [allreg]
  2267  0049  3078               	movlw	120
  2268  004A  0021               	movlb	1	; select bank1
  2269  004B  0099               	movwf	25	;volatile
  2270                           
  2271                           ;main.c: 34: WPUAbits.WPUA2 = 1;
  2272  004C  0024               	movlb	4	; select bank4
  2273  004D  150C               	bsf	12,2	;volatile
  2274                           
  2275                           ;main.c: 36: SysInitGpio();
  2276  004E  210D  3180         	fcall	_SysInitGpio
  2277                           
  2278                           ;main.c: 38: ExtIntInit();
  2279  0050  2071  3180         	fcall	_ExtIntInit
  2280                           
  2281                           ;main.c: 39: uint8_t i, j;
  2282                           ;main.c: 40: LATAbits.LATA4 = 0;
  2283  0052  0022               	movlb	2	; select bank2
  2284  0053  120C               	bcf	12,4	;volatile
  2285                           
  2286                           ;main.c: 41: LATCbits.LATC1 = 1;
  2287  0054  148E               	bsf	14,1	;volatile
  2288                           
  2289                           ;main.c: 42: for (i = 0; i < 250; i++)
  2290  0055  0020               	movlb	0	; select bank0
  2291  0056  01EB               	clrf	main@i
  2292  0057                     l1219:	
  2293                           
  2294                           ;main.c: 43: {
  2295                           ;main.c: 44: if (i == 125)
  2296  0057  086B               	movf	main@i,w
  2297  0058  3A7D               	xorlw	125
  2298  0059  1D03               	skipz
  2299  005A  285D               	goto	l1223
  2300                           
  2301                           ;main.c: 45: LATAbits.LATA4 = 1;
  2302  005B  0022               	movlb	2	; select bank2
  2303  005C  160C               	bsf	12,4	;volatile
  2304  005D                     l1223:	
  2305                           
  2306                           ;main.c: 46: for (j = 0; j < 250; j++) asm ("nop");
  2307  005D  0020               	movlb	0	; select bank0
  2308  005E  01EA               	clrf	main@j
  2309  005F                     l351:	
  2310  005F  0000               	nop	;# 
  2311  0060  0020               	movlb	0	; select bank0
  2312  0061  30FA               	movlw	250
  2313  0062  0AEA               	incf	main@j,f
  2314  0063  026A               	subwf	main@j,w
  2315  0064  1C03               	skipc
  2316  0065  285F               	goto	l351
  2317  0066  30FA               	movlw	250
  2318  0067  0AEB               	incf	main@i,f
  2319  0068  026B               	subwf	main@i,w
  2320  0069  1C03               	skipc
  2321  006A  2857               	goto	l1219
  2322                           
  2323                           ;main.c: 47: }
  2324                           ;main.c: 49: LATCbits.LATC4 = 1;
  2325  006B  0022               	movlb	2	; select bank2
  2326  006C  160E               	bsf	14,4	;volatile
  2327                           
  2328                           ;main.c: 50: LATAbits.LATA5 = 1;
  2329  006D  168C               	bsf	12,5	;volatile
  2330                           
  2331                           ;main.c: 52: Mrf49xaInit();
  2332  006E  2077  3180         	fcall	_Mrf49xaInit
  2333  0070                     l353:	
  2334                           ;main.c: 54: while(1)
  2335                           
  2336                           
  2337                           ;main.c: 55: {
  2338  0070  2870               	goto	l353
  2339  0071                     __end_of_main:	
  2340  0071                     __ptext6:	
  2341 ;; *************** function _ExtIntInit *****************
  2342 ;; Defined at:
  2343 ;;		line 8 in file "../../../src/bsp/pic16/interrupt.c"
  2344 ;; Parameters:    Size  Location     Type
  2345 ;;		None
  2346 ;; Auto vars:     Size  Location     Type
  2347 ;;		None
  2348 ;; Return value:  Size  Location     Type
  2349 ;;		None               void
  2350 ;; Registers used:
  2351 ;;		None
  2352 ;; Tracked objects:
  2353 ;;		On entry : 17F/2
  2354 ;;		On exit  : 17F/1
  2355 ;;		Unchanged: 160/0
  2356 ;; Data sizes:     COMMON   BANK0   BANK1   BANK2
  2357 ;;      Params:         0       0       0       0
  2358 ;;      Locals:         0       0       0       0
  2359 ;;      Temps:          0       0       0       0
  2360 ;;      Totals:         0       0       0       0
  2361 ;;Total ram usage:        0 bytes
  2362 ;; Hardware stack levels used:    1
  2363 ;; Hardware stack levels required when called:    6
  2364 ;; This function calls:
  2365 ;;		Nothing
  2366 ;; This function is called by:
  2367 ;;		_main
  2368 ;; This function uses a non-reentrant model
  2369 ;;
  2370                           
  2371                           
  2372                           ;psect for function _ExtIntInit
  2373  0071                     _ExtIntInit:	
  2374                           
  2375                           ;interrupt.c: 10: OPTION_REGbits.INTEDG = 0;
  2376                           
  2377                           ;incstack = 0
  2378                           ; Regs used in _ExtIntInit: []
  2379  0071  0021               	movlb	1	; select bank1
  2380  0072  1315               	bcf	21,6	;volatile
  2381                           
  2382                           ;interrupt.c: 12: INTCONbits.INTF = 0;
  2383  0073  108B               	bcf	11,1	;volatile
  2384                           
  2385                           ;interrupt.c: 13: INTCONbits.INTE = 1;
  2386  0074  160B               	bsf	11,4	;volatile
  2387                           
  2388                           ;interrupt.c: 14: INTCONbits.GIE = 1;
  2389  0075  178B               	bsf	11,7	;volatile
  2390  0076  0008               	return
  2391  0077                     __end_of_ExtIntInit:	
  2392  0077                     __ptext2:	
  2393 ;; *************** function _Mrf49xaInit *****************
  2394 ;; Defined at:
  2395 ;;		line 235 in file "../../../src/devices/mrf49xa.c"
  2396 ;; Parameters:    Size  Location     Type
  2397 ;;		None
  2398 ;; Auto vars:     Size  Location     Type
  2399 ;;  k               1    4[BANK0 ] unsigned char 
  2400 ;;  j               1    3[BANK0 ] unsigned char 
  2401 ;;  i               1    2[BANK0 ] unsigned char 
  2402 ;; Return value:  Size  Location     Type
  2403 ;;		None               void
  2404 ;; Registers used:
  2405 ;;		wreg, fsr0l, fsr0h, fsr1l, fsr1h, fsr1l, fsr1h, status,2, status,0, btemp+1, pclath, cstack
  2406 ;; Tracked objects:
  2407 ;;		On entry : 1F/2
  2408 ;;		On exit  : 1F/0
  2409 ;;		Unchanged: 0/0
  2410 ;; Data sizes:     COMMON   BANK0   BANK1   BANK2
  2411 ;;      Params:         0       0       0       0
  2412 ;;      Locals:         0       3       0       0
  2413 ;;      Temps:          0       0       0       0
  2414 ;;      Totals:         0       3       0       0
  2415 ;;Total ram usage:        3 bytes
  2416 ;; Hardware stack levels used:    1
  2417 ;; Hardware stack levels required when called:    9
  2418 ;; This function calls:
  2419 ;;		_Mrf49TxCmd
  2420 ;;		_Mrf49xaModeRx
  2421 ;; This function is called by:
  2422 ;;		_main
  2423 ;; This function uses a non-reentrant model
  2424 ;;
  2425                           
  2426                           
  2427                           ;psect for function _Mrf49xaInit
  2428  0077                     _Mrf49xaInit:	
  2429                           
  2430                           ;mrf49xa.c: 237: UI08_t i, j, k;
  2431                           ;mrf49xa.c: 238: for (k = 0; k < mrfRegset_InitCnt; k++) { if (mrfRegset_Init[k].reg == 
      +                          0x55) { for (i = 0; i < 12; i++) { for (j = 0; j < 250; j++) { asm ("nop"); } }; } else 
      +                          { Mrf49TxCmd(mrfRegset_Init[k].reg, mrfRegset_Init[k].val); } };
  2432                           
  2433                           ;incstack = 0
  2434                           ; Regs used in _Mrf49xaInit: [allreg]
  2435  0077  0020               	movlb	0	; select bank0
  2436  0078  301F               	movlw	low (_mrfRegset_InitCnt| (0+32768))
  2437  0079  01E9               	clrf	Mrf49xaInit@k
  2438  007A  3182               	movlp	high __stringtab
  2439  007B  000A               	callw
  2440  007C  3180               	pagesel	$	;select current page
  2441  007D  3800               	iorlw	0
  2442  007E  1903               	btfsc	3,2
  2443  007F  28AC               	goto	l1167
  2444  0080                     l1139:	
  2445  0080  3569               	lslf	Mrf49xaInit@k,w
  2446  0081  3E22               	addlw	low (_mrfRegset_Init| (0+32768))
  2447  0082  3182               	movlp	high __stringtab
  2448  0083  000A               	callw
  2449  0084  3180               	pagesel	$	;select current page
  2450  0085  3A55               	xorlw	85
  2451  0086  1D03               	skipz
  2452  0087  2897               	goto	l1161
  2453  0088  01E7               	clrf	Mrf49xaInit@i
  2454  0089                     l1147:	
  2455  0089  01E8               	clrf	Mrf49xaInit@j
  2456  008A                     l217:	
  2457  008A  0000               	nop	;# 
  2458  008B  0020               	movlb	0	; select bank0
  2459  008C  30FA               	movlw	250
  2460  008D  0AE8               	incf	Mrf49xaInit@j,f
  2461  008E  0268               	subwf	Mrf49xaInit@j,w
  2462  008F  1C03               	skipc
  2463  0090  288A               	goto	l217
  2464  0091  300C               	movlw	12
  2465  0092  0AE7               	incf	Mrf49xaInit@i,f
  2466  0093  0267               	subwf	Mrf49xaInit@i,w
  2467  0094  1803               	btfsc	3,0
  2468  0095  28A3               	goto	l1163
  2469  0096  2889               	goto	l1147
  2470  0097                     l1161:	
  2471  0097  3569               	lslf	Mrf49xaInit@k,w
  2472  0098  3E23               	addlw	low ((_mrfRegset_Init| (0+32768)+1))
  2473  0099  3182               	movlp	high __stringtab
  2474  009A  000A               	callw
  2475  009B  3180               	pagesel	$	;select current page
  2476  009C  00F7               	movwf	Mrf49TxCmd@val
  2477  009D  3569               	lslf	Mrf49xaInit@k,w
  2478  009E  3E22               	addlw	low (_mrfRegset_Init| (0+32768))
  2479  009F  3182               	movlp	high __stringtab
  2480  00A0  000A               	callw
  2481  00A1  3180               	pagesel	$	;select current page
  2482  00A2  20AD               	fcall	_Mrf49TxCmd
  2483  00A3                     l1163:	
  2484  00A3  0020               	movlb	0	; select bank0
  2485  00A4  301F               	movlw	low (_mrfRegset_InitCnt| (0+32768))
  2486  00A5  0AE9               	incf	Mrf49xaInit@k,f
  2487  00A6  3182               	movlp	high __stringtab
  2488  00A7  000A               	callw
  2489  00A8  3180               	pagesel	$	;select current page
  2490  00A9  0269               	subwf	Mrf49xaInit@k,w
  2491  00AA  1C03               	skipc
  2492  00AB  2880               	goto	l1139
  2493  00AC                     l1167:	
  2494                           
  2495                           ;mrf49xa.c: 240: Mrf49xaModeRx();
  2496  00AC  2822               	ljmp	l1111
  2497  00AD                     __end_of_Mrf49xaInit:	
  2498  00AD                     __ptext4:	
  2499 ;; *************** function _Mrf49TxCmd *****************
  2500 ;; Defined at:
  2501 ;;		line 6 in file "../../../src/devices/mrf49xa_cmd.c"
  2502 ;; Parameters:    Size  Location     Type
  2503 ;;  cmd             1    wreg     unsigned char 
  2504 ;;  val             1    7[COMMON] unsigned char 
  2505 ;; Auto vars:     Size  Location     Type
  2506 ;;  cmd             1    0[BANK0 ] unsigned char 
  2507 ;; Return value:  Size  Location     Type
  2508 ;;		None               void
  2509 ;; Registers used:
  2510 ;;		wreg, status,2, status,0, pclath, cstack
  2511 ;; Tracked objects:
  2512 ;;		On entry : 1F/0
  2513 ;;		On exit  : 1F/2
  2514 ;;		Unchanged: 0/0
  2515 ;; Data sizes:     COMMON   BANK0   BANK1   BANK2
  2516 ;;      Params:         1       0       0       0
  2517 ;;      Locals:         0       1       0       0
  2518 ;;      Temps:          0       0       0       0
  2519 ;;      Totals:         1       1       0       0
  2520 ;;Total ram usage:        2 bytes
  2521 ;; Hardware stack levels used:    1
  2522 ;; Hardware stack levels required when called:    7
  2523 ;; This function calls:
  2524 ;;		_Mrf49SpiTx
  2525 ;; This function is called by:
  2526 ;;		_Mrf49xaModeRx
  2527 ;;		_Mrf49xaInit
  2528 ;; This function uses a non-reentrant model
  2529 ;;
  2530                           
  2531                           
  2532                           ;psect for function _Mrf49TxCmd
  2533  00AD                     _Mrf49TxCmd:	
  2534                           
  2535                           ;incstack = 0
  2536                           ; Regs used in _Mrf49TxCmd: [wreg+status,2+status,0+pclath+cstack]
  2537                           ;Mrf49TxCmd@cmd stored from wreg
  2538  00AD  00E5               	movwf	Mrf49TxCmd@cmd
  2539                           
  2540                           ;mrf49xa_cmd.c: 8: LATCbits.LATC6 = 0;;
  2541  00AE  0022               	movlb	2	; select bank2
  2542  00AF  130E               	bcf	14,6	;volatile
  2543                           
  2544                           ;mrf49xa_cmd.c: 10: Mrf49SpiTx(cmd);
  2545  00B0  0020               	movlb	0	; select bank0
  2546  00B1  0865               	movf	Mrf49TxCmd@cmd,w
  2547  00B2  20B8  3180         	fcall	_Mrf49SpiTx
  2548                           
  2549                           ;mrf49xa_cmd.c: 11: Mrf49SpiTx(val);
  2550  00B4  0877               	movf	Mrf49TxCmd@val,w
  2551  00B5  20B8               	fcall	_Mrf49SpiTx
  2552                           
  2553                           ;mrf49xa_cmd.c: 13: LATCbits.LATC6 = 1;;
  2554  00B6  170E               	bsf	14,6	;volatile
  2555  00B7  0008               	return
  2556  00B8                     __end_of_Mrf49TxCmd:	
  2557  00B8                     __ptext5:	
  2558 ;; *************** function _Mrf49SpiTx *****************
  2559 ;; Defined at:
  2560 ;;		line 3 in file "../../../src/devices/mrf49xa_spi_pic16.c"
  2561 ;; Parameters:    Size  Location     Type
  2562 ;;  byte            1    wreg     unsigned char 
  2563 ;; Auto vars:     Size  Location     Type
  2564 ;;  byte            1    6[COMMON] unsigned char 
  2565 ;; Return value:  Size  Location     Type
  2566 ;;		None               void
  2567 ;; Registers used:
  2568 ;;		wreg
  2569 ;; Tracked objects:
  2570 ;;		On entry : 1D/0
  2571 ;;		On exit  : 1F/2
  2572 ;;		Unchanged: 0/0
  2573 ;; Data sizes:     COMMON   BANK0   BANK1   BANK2
  2574 ;;      Params:         0       0       0       0
  2575 ;;      Locals:         1       0       0       0
  2576 ;;      Temps:          0       0       0       0
  2577 ;;      Totals:         1       0       0       0
  2578 ;;Total ram usage:        1 bytes
  2579 ;; Hardware stack levels used:    1
  2580 ;; Hardware stack levels required when called:    6
  2581 ;; This function calls:
  2582 ;;		Nothing
  2583 ;; This function is called by:
  2584 ;;		_Mrf49TxCmd
  2585 ;; This function uses a non-reentrant model
  2586 ;;
  2587                           
  2588                           
  2589                           ;psect for function _Mrf49SpiTx
  2590  00B8                     _Mrf49SpiTx:	
  2591                           
  2592                           ;incstack = 0
  2593                           ; Regs used in _Mrf49SpiTx: [wreg]
  2594                           ;Mrf49SpiTx@byte stored from wreg
  2595  00B8  00F6               	movwf	Mrf49SpiTx@byte
  2596                           
  2597                           ;mrf49xa_spi_pic16.c: 10: do { if ((byte & (1<<7)) != 0) LATBbits.LATB7 = 1; else LATBbi
      +                          ts.LATB7 = 0; LATCbits.LATC7 = 1; asm("nop");; asm("nop");; LATCbits.LATC7 = 0; } while 
      +                          (0);;
  2598  00B9  1FF6               	btfss	Mrf49SpiTx@byte,7
  2599  00BA  28BE               	goto	l230
  2600  00BB  0022               	movlb	2	; select bank2
  2601  00BC  178D               	bsf	13,7	;volatile
  2602  00BD  28C0               	goto	l231
  2603  00BE                     l230:	
  2604  00BE  0022               	movlb	2	; select bank2
  2605  00BF  138D               	bcf	13,7	;volatile
  2606  00C0                     l231:	
  2607  00C0  178E               	bsf	14,7	;volatile
  2608  00C1  0000               	nop	;# 
  2609  00C2  0000               	nop	;# 
  2610  00C3  0022               	movlb	2	; select bank2
  2611  00C4  138E               	bcf	14,7	;volatile
  2612  00C5  1F76               	btfss	Mrf49SpiTx@byte,6
  2613  00C6  28C9               	goto	l234
  2614  00C7  178D               	bsf	13,7	;volatile
  2615  00C8  28CA               	goto	l235
  2616  00C9                     l234:	
  2617  00C9  138D               	bcf	13,7	;volatile
  2618  00CA                     l235:	
  2619  00CA  178E               	bsf	14,7	;volatile
  2620  00CB  0000               	nop	;# 
  2621  00CC  0000               	nop	;# 
  2622  00CD  0022               	movlb	2	; select bank2
  2623  00CE  138E               	bcf	14,7	;volatile
  2624  00CF  1EF6               	btfss	Mrf49SpiTx@byte,5
  2625  00D0  28D3               	goto	l238
  2626  00D1  178D               	bsf	13,7	;volatile
  2627  00D2  28D4               	goto	l239
  2628  00D3                     l238:	
  2629  00D3  138D               	bcf	13,7	;volatile
  2630  00D4                     l239:	
  2631  00D4  178E               	bsf	14,7	;volatile
  2632  00D5  0000               	nop	;# 
  2633  00D6  0000               	nop	;# 
  2634  00D7  0022               	movlb	2	; select bank2
  2635  00D8  138E               	bcf	14,7	;volatile
  2636  00D9  1E76               	btfss	Mrf49SpiTx@byte,4
  2637  00DA  28DD               	goto	l242
  2638  00DB  178D               	bsf	13,7	;volatile
  2639  00DC  28DE               	goto	l243
  2640  00DD                     l242:	
  2641  00DD  138D               	bcf	13,7	;volatile
  2642  00DE                     l243:	
  2643  00DE  178E               	bsf	14,7	;volatile
  2644  00DF  0000               	nop	;# 
  2645  00E0  0000               	nop	;# 
  2646  00E1  0022               	movlb	2	; select bank2
  2647  00E2  138E               	bcf	14,7	;volatile
  2648  00E3  1DF6               	btfss	Mrf49SpiTx@byte,3
  2649  00E4  28E7               	goto	l246
  2650  00E5  178D               	bsf	13,7	;volatile
  2651  00E6  28E8               	goto	l247
  2652  00E7                     l246:	
  2653  00E7  138D               	bcf	13,7	;volatile
  2654  00E8                     l247:	
  2655  00E8  178E               	bsf	14,7	;volatile
  2656  00E9  0000               	nop	;# 
  2657  00EA  0000               	nop	;# 
  2658  00EB  0022               	movlb	2	; select bank2
  2659  00EC  138E               	bcf	14,7	;volatile
  2660  00ED  1D76               	btfss	Mrf49SpiTx@byte,2
  2661  00EE  28F1               	goto	l250
  2662  00EF  178D               	bsf	13,7	;volatile
  2663  00F0  28F2               	goto	l251
  2664  00F1                     l250:	
  2665  00F1  138D               	bcf	13,7	;volatile
  2666  00F2                     l251:	
  2667  00F2  178E               	bsf	14,7	;volatile
  2668  00F3  0000               	nop	;# 
  2669  00F4  0000               	nop	;# 
  2670  00F5  0022               	movlb	2	; select bank2
  2671  00F6  138E               	bcf	14,7	;volatile
  2672  00F7  1CF6               	btfss	Mrf49SpiTx@byte,1
  2673  00F8  28FB               	goto	l254
  2674  00F9  178D               	bsf	13,7	;volatile
  2675  00FA  28FC               	goto	l255
  2676  00FB                     l254:	
  2677  00FB  138D               	bcf	13,7	;volatile
  2678  00FC                     l255:	
  2679  00FC  178E               	bsf	14,7	;volatile
  2680  00FD  0000               	nop	;# 
  2681  00FE  0000               	nop	;# 
  2682  00FF  0022               	movlb	2	; select bank2
  2683  0100  138E               	bcf	14,7	;volatile
  2684  0101  1C76               	btfss	Mrf49SpiTx@byte,0
  2685  0102  2905               	goto	l258
  2686  0103  178D               	bsf	13,7	;volatile
  2687  0104  2906               	goto	l259
  2688  0105                     l258:	
  2689  0105  138D               	bcf	13,7	;volatile
  2690  0106                     l259:	
  2691  0106  178E               	bsf	14,7	;volatile
  2692  0107  0000               	nop	;# 
  2693  0108  0000               	nop	;# 
  2694  0109  0022               	movlb	2	; select bank2
  2695  010A  138E               	bcf	14,7	;volatile
  2696                           
  2697                           ;mrf49xa_spi_pic16.c: 18: LATBbits.LATB7 = 0;
  2698  010B  138D               	bcf	13,7	;volatile
  2699  010C  0008               	return
  2700  010D                     __end_of_Mrf49SpiTx:	
  2701  010D                     __ptext1:	
  2702 ;; *************** function _SysInitGpio *****************
  2703 ;; Defined at:
  2704 ;;		line 10 in file "../../../src/node/main.c"
  2705 ;; Parameters:    Size  Location     Type
  2706 ;;		None
  2707 ;; Auto vars:     Size  Location     Type
  2708 ;;		None
  2709 ;; Return value:  Size  Location     Type
  2710 ;;		None               void
  2711 ;; Registers used:
  2712 ;;		None
  2713 ;; Tracked objects:
  2714 ;;		On entry : 17F/4
  2715 ;;		On exit  : 17F/2
  2716 ;;		Unchanged: 160/0
  2717 ;; Data sizes:     COMMON   BANK0   BANK1   BANK2
  2718 ;;      Params:         0       0       0       0
  2719 ;;      Locals:         0       0       0       0
  2720 ;;      Temps:          0       0       0       0
  2721 ;;      Totals:         0       0       0       0
  2722 ;;Total ram usage:        0 bytes
  2723 ;; Hardware stack levels used:    1
  2724 ;; Hardware stack levels required when called:    6
  2725 ;; This function calls:
  2726 ;;		Nothing
  2727 ;; This function is called by:
  2728 ;;		_main
  2729 ;; This function uses a non-reentrant model
  2730 ;;
  2731                           
  2732                           
  2733                           ;psect for function _SysInitGpio
  2734  010D                     _SysInitGpio:	
  2735                           
  2736                           ;incstack = 0
  2737                           ; Regs used in _SysInitGpio: []
  2738                           ;main.c: 12: do { TRISAbits.TRISA2 = 1; TRISAbits.TRISA4 = 0; TRISAbits.TRISA5 = 0; LATA
      +                          bits.LATA4 = 0; LATAbits.LATA5 = 0; } while(0);;
  2739  010D  0021               	movlb	1	; select bank1
  2740  010E  150C               	bsf	12,2	;volatile
  2741  010F  120C               	bcf	12,4	;volatile
  2742  0110  128C               	bcf	12,5	;volatile
  2743  0111  0022               	movlb	2	; select bank2
  2744  0112  120C               	bcf	12,4	;volatile
  2745  0113  128C               	bcf	12,5	;volatile
  2746                           
  2747                           ;main.c: 13: do { TRISBbits.TRISB4 = 0; TRISBbits.TRISB6 = 0; TRISBbits.TRISB7 = 0; TRIS
      +                          Bbits.TRISB5 = 1; } while(0);;
  2748  0114  0021               	movlb	1	; select bank1
  2749  0115  120D               	bcf	13,4	;volatile
  2750  0116  130D               	bcf	13,6	;volatile
  2751  0117  138D               	bcf	13,7	;volatile
  2752  0118  168D               	bsf	13,5	;volatile
  2753                           
  2754                           ;main.c: 14: do { TRISCbits.TRISC1 = 0; TRISCbits.TRISC2 = 0; TRISCbits.TRISC4 = 0; TRIS
      +                          Cbits.TRISC6 = 0; TRISCbits.TRISC7 = 0; TRISCbits.TRISC0 = 1; TRISCbits.TRISC3 = 1; TRIS
      +                          Cbits.TRISC5 = 1; LATCbits.LATC1 = 0; LATCbits.LATC2 = 0; LATCbits.LATC4 = 0; LATCbits.
  2755  0119  108E               	bcf	14,1	;volatile
  2756  011A  110E               	bcf	14,2	;volatile
  2757  011B  120E               	bcf	14,4	;volatile
  2758  011C  130E               	bcf	14,6	;volatile
  2759  011D  138E               	bcf	14,7	;volatile
  2760  011E  140E               	bsf	14,0	;volatile
  2761  011F  158E               	bsf	14,3	;volatile
  2762  0120  168E               	bsf	14,5	;volatile
  2763  0121  0022               	movlb	2	; select bank2
  2764  0122  108E               	bcf	14,1	;volatile
  2765  0123  110E               	bcf	14,2	;volatile
  2766  0124  120E               	bcf	14,4	;volatile
  2767  0125  170E               	bsf	14,6	;volatile
  2768  0126  138E               	bcf	14,7	;volatile
  2769                           
  2770                           ;main.c: 16: LATCbits.LATC1 = 0;
  2771  0127  108E               	bcf	14,1	;volatile
  2772                           
  2773                           ;main.c: 17: LATCbits.LATC2 = 0;
  2774  0128  110E               	bcf	14,2	;volatile
  2775  0129  0008               	return
  2776  012A                     __end_of_SysInitGpio:	
  2777                           
  2778                           	psect	bssCOMMON
  2779  0078                     __pbssCOMMON:	
  2780  0078                     _mrf49Status:	
  2781  0078                     	ds	2
  2782                           
  2783                           	psect	bssBANK0
  2784  0020                     __pbssBANK0:	
  2785  0020                     _rfTrcvStatus:	
  2786  0020                     	ds	69
  2787                           
  2788                           	psect	clrtext
  2789  0256                     clear_ram0:	
  2790                           ;	Called with FSR0 containing the base address, and
  2791                           ;	WREG with the size to clear
  2792                           
  2793  0256  0064               	clrwdt	;clear the watchdog before getting into this loop
  2794  0257                     clrloop0:	
  2795  0257  0180               	clrf	0	;clear RAM location pointed to by FSR
  2796  0258  3101               	addfsr 0,1
  2797  0259  0B89               	decfsz	9,f	;Have we reached the end of clearing yet?
  2798  025A  2A57               	goto	clrloop0	;have we reached the end yet?
  2799  025B  3400               	retlw	0	;all done for this memory range, return
  2800                           
  2801                           	psect	cstackCOMMON
  2802  0070                     __pcstackCOMMON:	
  2803  0070                     ?_Mrf49RxSts:	
  2804  0070                     ?_Mrf49xaModeRx:	
  2805                           ; 0 bytes @ 0x0
  2806                           
  2807  0070                     ?_ExtIntInit:	
  2808                           ; 0 bytes @ 0x0
  2809                           
  2810  0070                     ?_extInt:	
  2811                           ; 0 bytes @ 0x0
  2812                           
  2813  0070                     ?_Mrf49xaTick:	
  2814                           ; 0 bytes @ 0x0
  2815                           
  2816  0070                     ?_Mrf49xaInit:	
  2817                           ; 0 bytes @ 0x0
  2818                           
  2819  0070                     ?_Mrf49SpiTx:	
  2820                           ; 0 bytes @ 0x0
  2821                           
  2822  0070                     ??_Mrf49SpiRx:	
  2823                           ; 0 bytes @ 0x0
  2824                           
  2825  0070                     ?_SysInitGpio:	
  2826                           ; 0 bytes @ 0x0
  2827                           
  2828  0070                     ?_main:	
  2829                           ; 0 bytes @ 0x0
  2830                           
  2831  0070                     ?i1_Mrf49xaModeRx:	
  2832                           ; 0 bytes @ 0x0
  2833                           
  2834  0070                     ?i1_Mrf49SpiTx:	
  2835                           ; 0 bytes @ 0x0
  2836                           
  2837  0070                     ??i1_Mrf49SpiTx:	
  2838                           ; 0 bytes @ 0x0
  2839                           
  2840  0070                     ?_mrf49XaIsr:	
  2841                           ; 0 bytes @ 0x0
  2842                           
  2843  0070                     ?_Mrf49RxByte:	
  2844                           ; 1 bytes @ 0x0
  2845                           
  2846  0070                     ?_Mrf49SpiRx:	
  2847                           ; 1 bytes @ 0x0
  2848                           
  2849  0070                     ?_Mrf49RxCmd:	
  2850                           ; 1 bytes @ 0x0
  2851                           
  2852  0070                     Mrf49SpiRx@data:	
  2853                           ; 1 bytes @ 0x0
  2854                           
  2855  0070                     i1Mrf49SpiTx@byte:	
  2856                           ; 1 bytes @ 0x0
  2857                           
  2858                           
  2859                           ; 1 bytes @ 0x0
  2860  0070                     	ds	1
  2861  0071                     ??_Mrf49RxSts:	
  2862  0071                     ??_Mrf49RxCmd:	
  2863                           ; 0 bytes @ 0x1
  2864                           
  2865  0071                     ?i1_Mrf49TxCmd:	
  2866                           ; 0 bytes @ 0x1
  2867                           
  2868  0071                     Mrf49RxCmd@cmd:	
  2869                           ; 0 bytes @ 0x1
  2870                           
  2871  0071                     i1Mrf49TxCmd@val:	
  2872                           ; 1 bytes @ 0x1
  2873                           
  2874                           
  2875                           ; 1 bytes @ 0x1
  2876  0071                     	ds	1
  2877  0072                     ??i1_Mrf49TxCmd:	
  2878  0072                     Mrf49RxCmd@val:	
  2879                           ; 0 bytes @ 0x2
  2880                           
  2881  0072                     i1Mrf49TxCmd@cmd:	
  2882                           ; 1 bytes @ 0x2
  2883                           
  2884                           
  2885                           ; 1 bytes @ 0x2
  2886  0072                     	ds	1
  2887  0073                     ??_Mrf49RxByte:	
  2888  0073                     ??i1_Mrf49xaModeRx:	
  2889                           ; 0 bytes @ 0x3
  2890                           
  2891  0073                     i1Mrf49xaModeRx@k:	
  2892                           ; 0 bytes @ 0x3
  2893                           
  2894                           
  2895                           ; 1 bytes @ 0x3
  2896  0073                     	ds	1
  2897  0074                     ??_Mrf49xaTick:	
  2898                           
  2899                           ; 0 bytes @ 0x4
  2900  0074                     	ds	1
  2901  0075                     ??_mrf49XaIsr:	
  2902  0075                     ??_extInt:	
  2903                           ; 0 bytes @ 0x5
  2904                           
  2905                           
  2906                           ; 0 bytes @ 0x5
  2907  0075                     	ds	1
  2908  0076                     ??_ExtIntInit:	
  2909  0076                     ??_Mrf49SpiTx:	
  2910                           ; 0 bytes @ 0x6
  2911                           
  2912  0076                     ??_SysInitGpio:	
  2913                           ; 0 bytes @ 0x6
  2914                           
  2915  0076                     Mrf49SpiTx@byte:	
  2916                           ; 0 bytes @ 0x6
  2917                           
  2918                           
  2919                           ; 1 bytes @ 0x6
  2920  0076                     	ds	1
  2921  0077                     ?_Mrf49TxCmd:	
  2922  0077                     Mrf49TxCmd@val:	
  2923                           ; 0 bytes @ 0x7
  2924                           
  2925                           
  2926                           ; 1 bytes @ 0x7
  2927  0077                     	ds	1
  2928  0078                     ??_Mrf49xaModeRx:	
  2929  0078                     ??_Mrf49TxCmd:	
  2930                           ; 0 bytes @ 0x8
  2931                           
  2932  0078                     ??_Mrf49xaInit:	
  2933                           ; 0 bytes @ 0x8
  2934                           
  2935  0078                     ??_main:	
  2936                           ; 0 bytes @ 0x8
  2937                           
  2938                           
  2939                           	psect	cstackBANK0
  2940  0065                     __pcstackBANK0:	
  2941                           ; 0 bytes @ 0x8
  2942                           
  2943  0065                     Mrf49TxCmd@cmd:	
  2944                           
  2945                           ; 1 bytes @ 0x0
  2946  0065                     	ds	1
  2947  0066                     Mrf49xaModeRx@k:	
  2948                           
  2949                           ; 1 bytes @ 0x1
  2950  0066                     	ds	1
  2951  0067                     Mrf49xaInit@i:	
  2952                           
  2953                           ; 1 bytes @ 0x2
  2954  0067                     	ds	1
  2955  0068                     Mrf49xaInit@j:	
  2956                           
  2957                           ; 1 bytes @ 0x3
  2958  0068                     	ds	1
  2959  0069                     Mrf49xaInit@k:	
  2960                           
  2961                           ; 1 bytes @ 0x4
  2962  0069                     	ds	1
  2963  006A                     main@j:	
  2964                           
  2965                           ; 1 bytes @ 0x5
  2966  006A                     	ds	1
  2967  006B                     main@i:	
  2968                           
  2969                           ; 1 bytes @ 0x6
  2970  006B                     	ds	1
  2971                           
  2972                           	psect	intentry
  2973  0004                     __pintentry:	
  2974 ;; *************** function _extInt *****************
  2975 ;; Defined at:
  2976 ;;		line 31 in file "../../../src/bsp/pic16/interrupt.c"
  2977 ;; Parameters:    Size  Location     Type
  2978 ;;		None
  2979 ;; Auto vars:     Size  Location     Type
  2980 ;;		None
  2981 ;; Return value:  Size  Location     Type
  2982 ;;		None               void
  2983 ;; Registers used:
  2984 ;;		wreg, status,2, status,0, pclath, cstack
  2985 ;; Tracked objects:
  2986 ;;		On entry : 0/0
  2987 ;;		On exit  : 1F/0
  2988 ;;		Unchanged: 0/0
  2989 ;; Data sizes:     COMMON   BANK0   BANK1   BANK2
  2990 ;;      Params:         0       0       0       0
  2991 ;;      Locals:         0       0       0       0
  2992 ;;      Temps:          1       0       0       0
  2993 ;;      Totals:         1       0       0       0
  2994 ;;Total ram usage:        1 bytes
  2995 ;; Hardware stack levels used:    1
  2996 ;; Hardware stack levels required when called:    5
  2997 ;; This function calls:
  2998 ;;		_mrf49XaIsr
  2999 ;; This function is called by:
  3000 ;;		Interrupt level 1
  3001 ;; This function uses a non-reentrant model
  3002 ;;
  3003                           
  3004  0004                     _extInt:	
  3005                           
  3006                           ;incstack = 0
  3007                           ; Regs used in _extInt: [wreg+status,2+status,0+pclath+cstack]
  3008  0004  3180               	pagesel	$
  3009  0005  0020               	movlb	0	; select bank0
  3010  0006  087F               	movf	127,w
  3011  0007  00F5               	movwf	??_extInt
  3012                           
  3013                           ;interrupt.c: 33: if (INTCONbits.INTF != 0)
  3014  0008  1C8B               	btfss	11,1	;volatile
  3015  0009  2811               	goto	i1l131
  3016                           
  3017                           ;interrupt.c: 34: {
  3018                           ;interrupt.c: 35: if (mrf49XaIsr())
  3019  000A  3181  212A  3180   	fcall	_mrf49XaIsr
  3020  000D  3A00               	xorlw	0
  3021  000E  1903               	skipnz
  3022  000F  2811               	goto	i1l131
  3023                           
  3024                           ;interrupt.c: 36: INTCONbits.INTF = 0;
  3025  0010  108B               	bcf	11,1	;volatile
  3026  0011                     i1l131:	
  3027  0011  0875               	movf	??_extInt,w
  3028  0012  00FF               	movwf	127
  3029  0013  0009               	retfie
  3030  0014                     __end_of_extInt:	
  3031                           
  3032                           	psect	text8
  3033  012A                     __ptext8:	
  3034 ;; *************** function _mrf49XaIsr *****************
  3035 ;; Defined at:
  3036 ;;		line 23 in file "../../../src/node/main.c"
  3037 ;; Parameters:    Size  Location     Type
  3038 ;;		None
  3039 ;; Auto vars:     Size  Location     Type
  3040 ;;		None
  3041 ;; Return value:  Size  Location     Type
  3042 ;;                  1    wreg      unsigned char 
  3043 ;; Registers used:
  3044 ;;		wreg, status,2, status,0, pclath, cstack
  3045 ;; Tracked objects:
  3046 ;;		On entry : 0/0
  3047 ;;		On exit  : 1F/0
  3048 ;;		Unchanged: 0/0
  3049 ;; Data sizes:     COMMON   BANK0   BANK1   BANK2
  3050 ;;      Params:         0       0       0       0
  3051 ;;      Locals:         0       0       0       0
  3052 ;;      Temps:          0       0       0       0
  3053 ;;      Totals:         0       0       0       0
  3054 ;;Total ram usage:        0 bytes
  3055 ;; Hardware stack levels used:    1
  3056 ;; Hardware stack levels required when called:    4
  3057 ;; This function calls:
  3058 ;;		_Mrf49xaTick
  3059 ;; This function is called by:
  3060 ;;		_extInt
  3061 ;; This function uses a non-reentrant model
  3062 ;;
  3063                           
  3064                           
  3065                           ;psect for function _mrf49XaIsr
  3066  012A                     _mrf49XaIsr:	
  3067                           
  3068                           ;main.c: 25: Mrf49xaTick();
  3069                           
  3070                           ;incstack = 0
  3071                           ; Regs used in _mrf49XaIsr: [wreg+status,2+status,0+pclath+cstack]
  3072  012A  21BE               	fcall	_Mrf49xaTick
  3073                           
  3074                           ;main.c: 27: return PORTAbits.RA2 == 1 ? 1 : 0;
  3075  012B  0020               	movlb	0	; select bank0
  3076  012C  0C0C               	rrf	12,w	;volatile
  3077  012D  0C89               	rrf	9,f
  3078  012E  3901               	andlw	1
  3079  012F  0008               	return
  3080  0130                     __end_of_mrf49XaIsr:	
  3081  0130                     __ptext14:	
  3082 ;; *************** function _Mrf49RxCmd *****************
  3083 ;; Defined at:
  3084 ;;		line 16 in file "../../../src/devices/mrf49xa_cmd.c"
  3085 ;; Parameters:    Size  Location     Type
  3086 ;;  cmd             1    wreg     unsigned char 
  3087 ;; Auto vars:     Size  Location     Type
  3088 ;;  cmd             1    1[COMMON] unsigned char 
  3089 ;;  val             1    2[COMMON] unsigned char 
  3090 ;; Return value:  Size  Location     Type
  3091 ;;                  1    wreg      unsigned char 
  3092 ;; Registers used:
  3093 ;;		wreg, status,2, status,0, pclath, cstack
  3094 ;; Tracked objects:
  3095 ;;		On entry : 1D/0
  3096 ;;		On exit  : 1F/2
  3097 ;;		Unchanged: 0/0
  3098 ;; Data sizes:     COMMON   BANK0   BANK1   BANK2
  3099 ;;      Params:         0       0       0       0
  3100 ;;      Locals:         2       0       0       0
  3101 ;;      Temps:          0       0       0       0
  3102 ;;      Totals:         2       0       0       0
  3103 ;;Total ram usage:        2 bytes
  3104 ;; Hardware stack levels used:    1
  3105 ;; Hardware stack levels required when called:    1
  3106 ;; This function calls:
  3107 ;;		_Mrf49SpiRx
  3108 ;;		i1_Mrf49SpiTx
  3109 ;; This function is called by:
  3110 ;;		_Mrf49RxByte
  3111 ;; This function uses a non-reentrant model
  3112 ;;
  3113                           
  3114                           
  3115                           ;psect for function _Mrf49RxCmd
  3116  0130                     _Mrf49RxCmd:	
  3117                           
  3118                           ;incstack = 0
  3119                           ; Regs used in _Mrf49RxCmd: [wreg+status,2+status,0+pclath+cstack]
  3120                           ;Mrf49RxCmd@cmd stored from wreg
  3121  0130  00F1               	movwf	Mrf49RxCmd@cmd
  3122                           
  3123                           ;mrf49xa_cmd.c: 18: LATCbits.LATC6 = 0;;
  3124  0131  0022               	movlb	2	; select bank2
  3125  0132  130E               	bcf	14,6	;volatile
  3126                           
  3127                           ;mrf49xa_cmd.c: 20: Mrf49SpiTx(cmd);
  3128  0133  0871               	movf	Mrf49RxCmd@cmd,w
  3129  0134  216B  3181         	fcall	i1_Mrf49SpiTx
  3130                           
  3131                           ;mrf49xa_cmd.c: 21: uint8_t val = Mrf49SpiRx();
  3132  0136  21D0               	fcall	_Mrf49SpiRx
  3133  0137  00F2               	movwf	Mrf49RxCmd@val
  3134                           
  3135                           ;mrf49xa_cmd.c: 23: LATCbits.LATC6 = 1;;
  3136  0138  170E               	bsf	14,6	;volatile
  3137                           
  3138                           ;mrf49xa_cmd.c: 25: return val;
  3139  0139  0008               	return
  3140  013A                     __end_of_Mrf49RxCmd:	
  3141  013A                     __ptext10:	
  3142 ;; *************** function i1_Mrf49xaModeRx *****************
  3143 ;; Defined at:
  3144 ;;		line 190 in file "../../../src/devices/mrf49xa.c"
  3145 ;; Parameters:    Size  Location     Type
  3146 ;;		None
  3147 ;; Auto vars:     Size  Location     Type
  3148 ;;  Mrf49xaModeR    1    3[COMMON] unsigned char 
  3149 ;; Return value:  Size  Location     Type
  3150 ;;		None               void
  3151 ;; Registers used:
  3152 ;;		wreg, status,2, status,0, pclath, cstack
  3153 ;; Tracked objects:
  3154 ;;		On entry : 0/0
  3155 ;;		On exit  : 1F/0
  3156 ;;		Unchanged: 0/0
  3157 ;; Data sizes:     COMMON   BANK0   BANK1   BANK2
  3158 ;;      Params:         0       0       0       0
  3159 ;;      Locals:         1       0       0       0
  3160 ;;      Temps:          0       0       0       0
  3161 ;;      Totals:         1       0       0       0
  3162 ;;Total ram usage:        1 bytes
  3163 ;; Hardware stack levels used:    1
  3164 ;; Hardware stack levels required when called:    2
  3165 ;; This function calls:
  3166 ;;		i1_Mrf49TxCmd
  3167 ;; This function is called by:
  3168 ;;		_Mrf49xaTick
  3169 ;; This function uses a non-reentrant model
  3170 ;;
  3171                           
  3172                           
  3173                           ;psect for function i1_Mrf49xaModeRx
  3174  013A                     i1_Mrf49xaModeRx:	
  3175  013A  3020               	movlw	low (_mrfRegset_RxCnt| (0+32768))
  3176                           
  3177                           ;mrf49xa.c: 192: UI08_t k;
  3178                           ;mrf49xa.c: 193: for (k = 0; k < mrfRegset_RxCnt; k++) { if (mrfRegset_Rx[k].reg != 0x55
      +                          ) Mrf49TxCmd(mrfRegset_Rx[k].reg, mrfRegset_Rx[k].val); };
  3179                           
  3180                           ;incstack = 0
  3181                           ; Regs used in i1_Mrf49xaModeRx: [wreg+status,2+status,0+pclath+cstack]
  3182  013B  01F3               	clrf	i1Mrf49xaModeRx@k
  3183  013C  3182               	movlp	high __stringtab
  3184  013D  000A               	callw
  3185  013E  3181               	pagesel	$	;select current page
  3186  013F  3800               	iorlw	0
  3187  0140  1903               	btfsc	3,2
  3188  0141  295E               	goto	i1l1307
  3189  0142                     i1l1299:	
  3190  0142  3573               	lslf	i1Mrf49xaModeRx@k,w
  3191  0143  3E42               	addlw	low (_mrfRegset_Rx| (0+32768))
  3192  0144  3182               	movlp	high __stringtab
  3193  0145  000A               	callw
  3194  0146  3181               	pagesel	$	;select current page
  3195  0147  3A55               	xorlw	85
  3196  0148  1903               	skipnz
  3197  0149  2956               	goto	i1l1303
  3198  014A  3573               	lslf	i1Mrf49xaModeRx@k,w
  3199  014B  3E43               	addlw	low ((_mrfRegset_Rx| (0+32768)+1))
  3200  014C  3182               	movlp	high __stringtab
  3201  014D  000A               	callw
  3202  014E  00F1               	movwf	i1Mrf49TxCmd@val
  3203  014F  3573               	lslf	i1Mrf49xaModeRx@k,w
  3204  0150  3E42               	addlw	low (_mrfRegset_Rx| (0+32768))
  3205  0151  3182               	movlp	high __stringtab
  3206  0152  000A               	callw
  3207  0153  3181               	pagesel	$	;select current page
  3208  0154  3181  2161         	fcall	i1_Mrf49TxCmd
  3209  0156                     i1l1303:	
  3210  0156  3020               	movlw	low (_mrfRegset_RxCnt| (0+32768))
  3211  0157  0AF3               	incf	i1Mrf49xaModeRx@k,f
  3212  0158  3182               	movlp	high __stringtab
  3213  0159  000A               	callw
  3214  015A  3181               	pagesel	$	;select current page
  3215  015B  0273               	subwf	i1Mrf49xaModeRx@k,w
  3216  015C  1C03               	skipc
  3217  015D  2942               	goto	i1l1299
  3218  015E                     i1l1307:	
  3219                           
  3220                           ;mrf49xa.c: 195: rfTrcvStatus.state = RECV_IDLE;
  3221  015E  0020               	movlb	0	; select bank0
  3222  015F  01A0               	clrf	_rfTrcvStatus
  3223  0160  0008               	return
  3224  0161                     __end_ofi1_Mrf49xaModeRx:	
  3225  0161                     __ptext11:	
  3226 ;; *************** function i1_Mrf49TxCmd *****************
  3227 ;; Defined at:
  3228 ;;		line 6 in file "../../../src/devices/mrf49xa_cmd.c"
  3229 ;; Parameters:    Size  Location     Type
  3230 ;;  cmd             1    wreg     unsigned char 
  3231 ;;  val             1    1[COMMON] unsigned char 
  3232 ;; Auto vars:     Size  Location     Type
  3233 ;;  cmd             1    2[COMMON] unsigned char 
  3234 ;; Return value:  Size  Location     Type
  3235 ;;		None               void
  3236 ;; Registers used:
  3237 ;;		wreg, status,2, status,0, pclath, cstack
  3238 ;; Tracked objects:
  3239 ;;		On entry : 0/0
  3240 ;;		On exit  : 1F/2
  3241 ;;		Unchanged: 0/0
  3242 ;; Data sizes:     COMMON   BANK0   BANK1   BANK2
  3243 ;;      Params:         1       0       0       0
  3244 ;;      Locals:         1       0       0       0
  3245 ;;      Temps:          0       0       0       0
  3246 ;;      Totals:         2       0       0       0
  3247 ;;Total ram usage:        2 bytes
  3248 ;; Hardware stack levels used:    1
  3249 ;; Hardware stack levels required when called:    1
  3250 ;; This function calls:
  3251 ;;		i1_Mrf49SpiTx
  3252 ;; This function is called by:
  3253 ;;		i1_Mrf49xaModeRx
  3254 ;; This function uses a non-reentrant model
  3255 ;;
  3256                           
  3257                           
  3258                           ;psect for function i1_Mrf49TxCmd
  3259  0161                     i1_Mrf49TxCmd:	
  3260                           
  3261                           ;incstack = 0
  3262                           ; Regs used in i1_Mrf49TxCmd: [wreg+status,2+status,0+pclath+cstack]
  3263                           ;i1Mrf49TxCmd@cmd stored from wreg
  3264  0161  00F2               	movwf	i1Mrf49TxCmd@cmd
  3265                           
  3266                           ;mrf49xa_cmd.c: 8: LATCbits.LATC6 = 0;;
  3267  0162  0022               	movlb	2	; select bank2
  3268  0163  130E               	bcf	14,6	;volatile
  3269                           
  3270                           ;mrf49xa_cmd.c: 10: Mrf49SpiTx(cmd);
  3271  0164  0872               	movf	i1Mrf49TxCmd@cmd,w
  3272  0165  216B  3181         	fcall	i1_Mrf49SpiTx
  3273                           
  3274                           ;mrf49xa_cmd.c: 11: Mrf49SpiTx(val);
  3275  0167  0871               	movf	i1Mrf49TxCmd@val,w
  3276  0168  216B               	fcall	i1_Mrf49SpiTx
  3277                           
  3278                           ;mrf49xa_cmd.c: 13: LATCbits.LATC6 = 1;;
  3279  0169  170E               	bsf	14,6	;volatile
  3280  016A  0008               	return
  3281  016B                     __end_ofi1_Mrf49TxCmd:	
  3282  016B                     __ptext15:	
  3283 ;; *************** function i1_Mrf49SpiTx *****************
  3284 ;; Defined at:
  3285 ;;		line 3 in file "../../../src/devices/mrf49xa_spi_pic16.c"
  3286 ;; Parameters:    Size  Location     Type
  3287 ;;  byte            1    wreg     unsigned char 
  3288 ;; Auto vars:     Size  Location     Type
  3289 ;;  byte            1    0[COMMON] unsigned char 
  3290 ;; Return value:  Size  Location     Type
  3291 ;;		None               void
  3292 ;; Registers used:
  3293 ;;		wreg
  3294 ;; Tracked objects:
  3295 ;;		On entry : 1F/2
  3296 ;;		On exit  : 1F/2
  3297 ;;		Unchanged: 0/0
  3298 ;; Data sizes:     COMMON   BANK0   BANK1   BANK2
  3299 ;;      Params:         0       0       0       0
  3300 ;;      Locals:         1       0       0       0
  3301 ;;      Temps:          0       0       0       0
  3302 ;;      Totals:         1       0       0       0
  3303 ;;Total ram usage:        1 bytes
  3304 ;; Hardware stack levels used:    1
  3305 ;; This function calls:
  3306 ;;		Nothing
  3307 ;; This function is called by:
  3308 ;;		_Mrf49RxCmd
  3309 ;;		i1_Mrf49TxCmd
  3310 ;; This function uses a non-reentrant model
  3311 ;;
  3312                           
  3313                           
  3314                           ;psect for function i1_Mrf49SpiTx
  3315  016B                     i1_Mrf49SpiTx:	
  3316                           
  3317                           ;incstack = 0
  3318                           ; Regs used in i1_Mrf49SpiTx: [wreg]
  3319                           ;i1Mrf49SpiTx@byte stored from wreg
  3320  016B  00F0               	movwf	i1Mrf49SpiTx@byte
  3321                           
  3322                           ;mrf49xa_spi_pic16.c: 10: do { if ((byte & (1<<7)) != 0) LATBbits.LATB7 = 1; else LATBbi
      +                          ts.LATB7 = 0; LATCbits.LATC7 = 1; asm("nop");; asm("nop");; LATCbits.LATC7 = 0; } while 
      +                          (0);;
  3323  016C  1FF0               	btfss	i1Mrf49SpiTx@byte,7
  3324  016D  2970               	goto	i1l230
  3325  016E  178D               	bsf	13,7	;volatile
  3326  016F  2971               	goto	i1l231
  3327  0170                     i1l230:	
  3328  0170  138D               	bcf	13,7	;volatile
  3329  0171                     i1l231:	
  3330  0171  178E               	bsf	14,7	;volatile
  3331  0172  0000               	nop	;# 
  3332  0173  0000               	nop	;# 
  3333  0174  0022               	movlb	2	; select bank2
  3334  0175  138E               	bcf	14,7	;volatile
  3335  0176  1F70               	btfss	i1Mrf49SpiTx@byte,6
  3336  0177  297A               	goto	i1l234
  3337  0178  178D               	bsf	13,7	;volatile
  3338  0179  297B               	goto	i1l235
  3339  017A                     i1l234:	
  3340  017A  138D               	bcf	13,7	;volatile
  3341  017B                     i1l235:	
  3342  017B  178E               	bsf	14,7	;volatile
  3343  017C  0000               	nop	;# 
  3344  017D  0000               	nop	;# 
  3345  017E  0022               	movlb	2	; select bank2
  3346  017F  138E               	bcf	14,7	;volatile
  3347  0180  1EF0               	btfss	i1Mrf49SpiTx@byte,5
  3348  0181  2984               	goto	i1l238
  3349  0182  178D               	bsf	13,7	;volatile
  3350  0183  2985               	goto	i1l239
  3351  0184                     i1l238:	
  3352  0184  138D               	bcf	13,7	;volatile
  3353  0185                     i1l239:	
  3354  0185  178E               	bsf	14,7	;volatile
  3355  0186  0000               	nop	;# 
  3356  0187  0000               	nop	;# 
  3357  0188  0022               	movlb	2	; select bank2
  3358  0189  138E               	bcf	14,7	;volatile
  3359  018A  1E70               	btfss	i1Mrf49SpiTx@byte,4
  3360  018B  298E               	goto	i1l242
  3361  018C  178D               	bsf	13,7	;volatile
  3362  018D  298F               	goto	i1l243
  3363  018E                     i1l242:	
  3364  018E  138D               	bcf	13,7	;volatile
  3365  018F                     i1l243:	
  3366  018F  178E               	bsf	14,7	;volatile
  3367  0190  0000               	nop	;# 
  3368  0191  0000               	nop	;# 
  3369  0192  0022               	movlb	2	; select bank2
  3370  0193  138E               	bcf	14,7	;volatile
  3371  0194  1DF0               	btfss	i1Mrf49SpiTx@byte,3
  3372  0195  2998               	goto	i1l246
  3373  0196  178D               	bsf	13,7	;volatile
  3374  0197  2999               	goto	i1l247
  3375  0198                     i1l246:	
  3376  0198  138D               	bcf	13,7	;volatile
  3377  0199                     i1l247:	
  3378  0199  178E               	bsf	14,7	;volatile
  3379  019A  0000               	nop	;# 
  3380  019B  0000               	nop	;# 
  3381  019C  0022               	movlb	2	; select bank2
  3382  019D  138E               	bcf	14,7	;volatile
  3383  019E  1D70               	btfss	i1Mrf49SpiTx@byte,2
  3384  019F  29A2               	goto	i1l250
  3385  01A0  178D               	bsf	13,7	;volatile
  3386  01A1  29A3               	goto	i1l251
  3387  01A2                     i1l250:	
  3388  01A2  138D               	bcf	13,7	;volatile
  3389  01A3                     i1l251:	
  3390  01A3  178E               	bsf	14,7	;volatile
  3391  01A4  0000               	nop	;# 
  3392  01A5  0000               	nop	;# 
  3393  01A6  0022               	movlb	2	; select bank2
  3394  01A7  138E               	bcf	14,7	;volatile
  3395  01A8  1CF0               	btfss	i1Mrf49SpiTx@byte,1
  3396  01A9  29AC               	goto	i1l254
  3397  01AA  178D               	bsf	13,7	;volatile
  3398  01AB  29AD               	goto	i1l255
  3399  01AC                     i1l254:	
  3400  01AC  138D               	bcf	13,7	;volatile
  3401  01AD                     i1l255:	
  3402  01AD  178E               	bsf	14,7	;volatile
  3403  01AE  0000               	nop	;# 
  3404  01AF  0000               	nop	;# 
  3405  01B0  0022               	movlb	2	; select bank2
  3406  01B1  138E               	bcf	14,7	;volatile
  3407  01B2  1C70               	btfss	i1Mrf49SpiTx@byte,0
  3408  01B3  29B6               	goto	i1l258
  3409  01B4  178D               	bsf	13,7	;volatile
  3410  01B5  29B7               	goto	i1l259
  3411  01B6                     i1l258:	
  3412  01B6  138D               	bcf	13,7	;volatile
  3413  01B7                     i1l259:	
  3414  01B7  178E               	bsf	14,7	;volatile
  3415  01B8  0000               	nop	;# 
  3416  01B9  0000               	nop	;# 
  3417  01BA  0022               	movlb	2	; select bank2
  3418  01BB  138E               	bcf	14,7	;volatile
  3419                           
  3420                           ;mrf49xa_spi_pic16.c: 18: LATBbits.LATB7 = 0;
  3421  01BC  138D               	bcf	13,7	;volatile
  3422  01BD  0008               	return
  3423  01BE                     __end_ofi1_Mrf49SpiTx:	
  3424  01BE                     __ptext9:	
  3425 ;; *************** function _Mrf49xaTick *****************
  3426 ;; Defined at:
  3427 ;;		line 82 in file "../../../src/devices/mrf49xa.c"
  3428 ;; Parameters:    Size  Location     Type
  3429 ;;		None
  3430 ;; Auto vars:     Size  Location     Type
  3431 ;;  data            1    0        unsigned char 
  3432 ;; Return value:  Size  Location     Type
  3433 ;;		None               void
  3434 ;; Registers used:
  3435 ;;		wreg, status,2, status,0, pclath, cstack
  3436 ;; Tracked objects:
  3437 ;;		On entry : 0/0
  3438 ;;		On exit  : 1D/0
  3439 ;;		Unchanged: 0/0
  3440 ;; Data sizes:     COMMON   BANK0   BANK1   BANK2
  3441 ;;      Params:         0       0       0       0
  3442 ;;      Locals:         1       0       0       0
  3443 ;;      Temps:          0       0       0       0
  3444 ;;      Totals:         1       0       0       0
  3445 ;;Total ram usage:        1 bytes
  3446 ;; Hardware stack levels used:    1
  3447 ;; Hardware stack levels required when called:    3
  3448 ;; This function calls:
  3449 ;;		_Mrf49RxByte
  3450 ;;		_Mrf49RxSts
  3451 ;;		i1_Mrf49xaModeRx
  3452 ;; This function is called by:
  3453 ;;		_mrf49XaIsr
  3454 ;; This function uses a non-reentrant model
  3455 ;;
  3456                           
  3457                           
  3458                           ;psect for function _Mrf49xaTick
  3459  01BE                     _Mrf49xaTick:	
  3460                           
  3461                           ;mrf49xa.c: 84: unsigned char data;
  3462                           ;mrf49xa.c: 90: if (PORTAbits.RA2 == 0)
  3463                           
  3464                           ;incstack = 0
  3465                           ; Regs used in _Mrf49xaTick: [wreg+status,2+status,0+pclath+cstack]
  3466  01BE  0020               	movlb	0	; select bank0
  3467  01BF  190C               	btfsc	12,2	;volatile
  3468  01C0  29C3               	goto	i1l1313
  3469                           
  3470                           ;mrf49xa.c: 91: Mrf49RxSts();
  3471  01C1  21C7  3181         	fcall	_Mrf49RxSts
  3472  01C3                     i1l1313:	
  3473                           
  3474                           ;mrf49xa.c: 92: if (mrf49Status.flags.msb.fifoTxRx && mrf49Status.flags.lsb.dataQualityO
      +                          K == 1)
  3475  01C3  1BF8               	btfsc	_mrf49Status,7
  3476  01C4  1FF9               	btfss	_mrf49Status+1,7
  3477  01C5  0008               	return
  3478  01C6  2A1C               	ljmp	i1l1289
  3479  01C7                     __end_of_Mrf49xaTick:	
  3480  01C7                     __ptext12:	
  3481 ;; *************** function _Mrf49RxSts *****************
  3482 ;; Defined at:
  3483 ;;		line 29 in file "../../../src/devices/mrf49xa_cmd.c"
  3484 ;; Parameters:    Size  Location     Type
  3485 ;;		None
  3486 ;; Auto vars:     Size  Location     Type
  3487 ;;		None
  3488 ;; Return value:  Size  Location     Type
  3489 ;;		None               void
  3490 ;; Registers used:
  3491 ;;		wreg, status,2, pclath, cstack
  3492 ;; Tracked objects:
  3493 ;;		On entry : 1F/0
  3494 ;;		On exit  : 1F/2
  3495 ;;		Unchanged: 0/0
  3496 ;; Data sizes:     COMMON   BANK0   BANK1   BANK2
  3497 ;;      Params:         0       0       0       0
  3498 ;;      Locals:         0       0       0       0
  3499 ;;      Temps:          0       0       0       0
  3500 ;;      Totals:         0       0       0       0
  3501 ;;Total ram usage:        0 bytes
  3502 ;; Hardware stack levels used:    1
  3503 ;; Hardware stack levels required when called:    1
  3504 ;; This function calls:
  3505 ;;		_Mrf49SpiRx
  3506 ;; This function is called by:
  3507 ;;		_Mrf49xaTick
  3508 ;; This function uses a non-reentrant model
  3509 ;;
  3510                           
  3511                           
  3512                           ;psect for function _Mrf49RxSts
  3513  01C7                     _Mrf49RxSts:	
  3514                           
  3515                           ;mrf49xa_cmd.c: 31: LATCbits.LATC6 = 0;;
  3516                           
  3517                           ;incstack = 0
  3518                           ; Regs used in _Mrf49RxSts: [wreg+status,2+pclath+cstack]
  3519  01C7  0022               	movlb	2	; select bank2
  3520  01C8  130E               	bcf	14,6	;volatile
  3521                           
  3522                           ;mrf49xa_cmd.c: 33: mrf49Status.byte[0] = Mrf49SpiRx();
  3523  01C9  21D0  3181         	fcall	_Mrf49SpiRx
  3524  01CB  00F8               	movwf	_mrf49Status
  3525                           
  3526                           ;mrf49xa_cmd.c: 34: mrf49Status.byte[1] = Mrf49SpiRx();
  3527  01CC  21D0               	fcall	_Mrf49SpiRx
  3528  01CD  00F9               	movwf	_mrf49Status+1
  3529                           
  3530                           ;mrf49xa_cmd.c: 36: LATCbits.LATC6 = 1;;
  3531  01CE  170E               	bsf	14,6	;volatile
  3532  01CF  0008               	return
  3533  01D0                     __end_of_Mrf49RxSts:	
  3534  01D0                     __ptext16:	
  3535 ;; *************** function _Mrf49SpiRx *****************
  3536 ;; Defined at:
  3537 ;;		line 21 in file "../../../src/devices/mrf49xa_spi_pic16.c"
  3538 ;; Parameters:    Size  Location     Type
  3539 ;;		None
  3540 ;; Auto vars:     Size  Location     Type
  3541 ;;  data            1    0[COMMON] unsigned char 
  3542 ;; Return value:  Size  Location     Type
  3543 ;;                  1    wreg      unsigned char 
  3544 ;; Registers used:
  3545 ;;		wreg, status,2
  3546 ;; Tracked objects:
  3547 ;;		On entry : 1F/2
  3548 ;;		On exit  : 1F/2
  3549 ;;		Unchanged: 0/0
  3550 ;; Data sizes:     COMMON   BANK0   BANK1   BANK2
  3551 ;;      Params:         0       0       0       0
  3552 ;;      Locals:         1       0       0       0
  3553 ;;      Temps:          0       0       0       0
  3554 ;;      Totals:         1       0       0       0
  3555 ;;Total ram usage:        1 bytes
  3556 ;; Hardware stack levels used:    1
  3557 ;; This function calls:
  3558 ;;		Nothing
  3559 ;; This function is called by:
  3560 ;;		_Mrf49RxCmd
  3561 ;;		_Mrf49RxSts
  3562 ;; This function uses a non-reentrant model
  3563 ;;
  3564                           
  3565                           
  3566                           ;psect for function _Mrf49SpiRx
  3567  01D0                     _Mrf49SpiRx:	
  3568                           
  3569                           ;mrf49xa_spi_pic16.c: 23: uint8_t data = 0;
  3570                           
  3571                           ;incstack = 0
  3572                           ; Regs used in _Mrf49SpiRx: [wreg+status,2]
  3573  01D0  01F0               	clrf	Mrf49SpiRx@data
  3574                           
  3575                           ;mrf49xa_spi_pic16.c: 24: LATBbits.LATB7 = 0;
  3576  01D1  138D               	bcf	13,7	;volatile
  3577  01D2  0020               	movlb	0	; select bank0
  3578  01D3  1A8E               	btfsc	14,5	;volatile
  3579  01D4  17F0               	bsf	Mrf49SpiRx@data,7
  3580  01D5  0022               	movlb	2	; select bank2
  3581  01D6  178E               	bsf	14,7	;volatile
  3582  01D7  0000               	nop	;# 
  3583  01D8  0000               	nop	;# 
  3584  01D9  0022               	movlb	2	; select bank2
  3585  01DA  138E               	bcf	14,7	;volatile
  3586                           
  3587                           ;mrf49xa_spi_pic16.c: 32: do { if (PORTCbits.RC5) data |= (1<<6); LATCbits.LATC7 = 1; as
      +                          m("nop");; asm("nop");; LATCbits.LATC7 = 0; } while (0);;
  3588  01DB  0020               	movlb	0	; select bank0
  3589  01DC  1A8E               	btfsc	14,5	;volatile
  3590  01DD  1770               	bsf	Mrf49SpiRx@data,6
  3591  01DE  0022               	movlb	2	; select bank2
  3592  01DF  178E               	bsf	14,7	;volatile
  3593  01E0  0000               	nop	;# 
  3594  01E1  0000               	nop	;# 
  3595  01E2  0022               	movlb	2	; select bank2
  3596  01E3  138E               	bcf	14,7	;volatile
  3597                           
  3598                           ;mrf49xa_spi_pic16.c: 33: do { if (PORTCbits.RC5) data |= (1<<5); LATCbits.LATC7 = 1; as
      +                          m("nop");; asm("nop");; LATCbits.LATC7 = 0; } while (0);;
  3599  01E4  0020               	movlb	0	; select bank0
  3600  01E5  1A8E               	btfsc	14,5	;volatile
  3601  01E6  16F0               	bsf	Mrf49SpiRx@data,5
  3602  01E7  0022               	movlb	2	; select bank2
  3603  01E8  178E               	bsf	14,7	;volatile
  3604  01E9  0000               	nop	;# 
  3605  01EA  0000               	nop	;# 
  3606  01EB  0022               	movlb	2	; select bank2
  3607  01EC  138E               	bcf	14,7	;volatile
  3608                           
  3609                           ;mrf49xa_spi_pic16.c: 34: do { if (PORTCbits.RC5) data |= (1<<4); LATCbits.LATC7 = 1; as
      +                          m("nop");; asm("nop");; LATCbits.LATC7 = 0; } while (0);;
  3610  01ED  0020               	movlb	0	; select bank0
  3611  01EE  1A8E               	btfsc	14,5	;volatile
  3612  01EF  1670               	bsf	Mrf49SpiRx@data,4
  3613  01F0  0022               	movlb	2	; select bank2
  3614  01F1  178E               	bsf	14,7	;volatile
  3615  01F2  0000               	nop	;# 
  3616  01F3  0000               	nop	;# 
  3617  01F4  0022               	movlb	2	; select bank2
  3618  01F5  138E               	bcf	14,7	;volatile
  3619                           
  3620                           ;mrf49xa_spi_pic16.c: 35: do { if (PORTCbits.RC5) data |= (1<<3); LATCbits.LATC7 = 1; as
      +                          m("nop");; asm("nop");; LATCbits.LATC7 = 0; } while (0);;
  3621  01F6  0020               	movlb	0	; select bank0
  3622  01F7  1A8E               	btfsc	14,5	;volatile
  3623  01F8  15F0               	bsf	Mrf49SpiRx@data,3
  3624  01F9  0022               	movlb	2	; select bank2
  3625  01FA  178E               	bsf	14,7	;volatile
  3626  01FB  0000               	nop	;# 
  3627  01FC  0000               	nop	;# 
  3628  01FD  0022               	movlb	2	; select bank2
  3629  01FE  138E               	bcf	14,7	;volatile
  3630                           
  3631                           ;mrf49xa_spi_pic16.c: 36: do { if (PORTCbits.RC5) data |= (1<<2); LATCbits.LATC7 = 1; as
      +                          m("nop");; asm("nop");; LATCbits.LATC7 = 0; } while (0);;
  3632  01FF  0020               	movlb	0	; select bank0
  3633  0200  1A8E               	btfsc	14,5	;volatile
  3634  0201  1570               	bsf	Mrf49SpiRx@data,2
  3635  0202  0022               	movlb	2	; select bank2
  3636  0203  178E               	bsf	14,7	;volatile
  3637  0204  0000               	nop	;# 
  3638  0205  0000               	nop	;# 
  3639  0206  0022               	movlb	2	; select bank2
  3640  0207  138E               	bcf	14,7	;volatile
  3641                           
  3642                           ;mrf49xa_spi_pic16.c: 37: do { if (PORTCbits.RC5) data |= (1<<1); LATCbits.LATC7 = 1; as
      +                          m("nop");; asm("nop");; LATCbits.LATC7 = 0; } while (0);;
  3643  0208  0020               	movlb	0	; select bank0
  3644  0209  1A8E               	btfsc	14,5	;volatile
  3645  020A  14F0               	bsf	Mrf49SpiRx@data,1
  3646  020B  0022               	movlb	2	; select bank2
  3647  020C  178E               	bsf	14,7	;volatile
  3648  020D  0000               	nop	;# 
  3649  020E  0000               	nop	;# 
  3650  020F  0022               	movlb	2	; select bank2
  3651  0210  138E               	bcf	14,7	;volatile
  3652                           
  3653                           ;mrf49xa_spi_pic16.c: 38: do { if (PORTCbits.RC5) data |= (1<<0); LATCbits.LATC7 = 1; as
      +                          m("nop");; asm("nop");; LATCbits.LATC7 = 0; } while (0);;
  3654  0211  0020               	movlb	0	; select bank0
  3655  0212  1A8E               	btfsc	14,5	;volatile
  3656  0213  1470               	bsf	Mrf49SpiRx@data,0
  3657  0214  0022               	movlb	2	; select bank2
  3658  0215  178E               	bsf	14,7	;volatile
  3659  0216  0000               	nop	;# 
  3660  0217  0000               	nop	;# 
  3661  0218  0022               	movlb	2	; select bank2
  3662  0219  138E               	bcf	14,7	;volatile
  3663                           
  3664                           ;mrf49xa_spi_pic16.c: 40: return data;
  3665  021A  0870               	movf	Mrf49SpiRx@data,w
  3666  021B  0008               	return
  3667  021C                     __end_of_Mrf49SpiRx:	
  3668  007E                     btemp	set	126	;btemp
  3669  007E                     wtemp	set	126
  3670  007E                     wtemp0	set	126
  3671  0080                     wtemp1	set	128
  3672  0082                     wtemp2	set	130
  3673  0084                     wtemp3	set	132
  3674  0086                     wtemp4	set	134
  3675  0088                     wtemp5	set	136
  3676  007F                     wtemp6	set	127
  3677  007E                     ttemp	set	126
  3678  007E                     ttemp0	set	126
  3679  0081                     ttemp1	set	129
  3680  0084                     ttemp2	set	132
  3681  0087                     ttemp3	set	135
  3682  007F                     ttemp4	set	127
  3683  007E                     ltemp	set	126
  3684  007E                     ltemp0	set	126
  3685  0082                     ltemp1	set	130
  3686  0086                     ltemp2	set	134
  3687  0080                     ltemp3	set	128
  3688  021C                     __ptext13:	
  3689 ;; *************** function _Mrf49RxByte *****************
  3690 ;; Defined at:
  3691 ;;		line 39 in file "../../../src/devices/mrf49xa_cmd.c"
  3692 ;; Parameters:    Size  Location     Type
  3693 ;;		None
  3694 ;; Auto vars:     Size  Location     Type
  3695 ;;		None
  3696 ;; Return value:  Size  Location     Type
  3697 ;;                  1    wreg      unsigned char 
  3698 ;; Registers used:
  3699 ;;		wreg, status,2, status,0, pclath, cstack
  3700 ;; Tracked objects:
  3701 ;;		On entry : 1D/0
  3702 ;;		On exit  : 1F/2
  3703 ;;		Unchanged: 0/0
  3704 ;; Data sizes:     COMMON   BANK0   BANK1   BANK2
  3705 ;;      Params:         0       0       0       0
  3706 ;;      Locals:         0       0       0       0
  3707 ;;      Temps:          0       0       0       0
  3708 ;;      Totals:         0       0       0       0
  3709 ;;Total ram usage:        0 bytes
  3710 ;; Hardware stack levels used:    1
  3711 ;; Hardware stack levels required when called:    2
  3712 ;; This function calls:
  3713 ;;		_Mrf49RxCmd
  3714 ;; This function is called by:
  3715 ;;		_Mrf49xaTick
  3716 ;; This function uses a non-reentrant model
  3717 ;;
  3718                           
  3719                           
  3720                           ;psect for function _Mrf49RxByte
  3721  021C                     _Mrf49RxByte:	
  3722  021C                     i1l1289:	
  3723                           ;incstack = 0
  3724                           ; Regs used in _Mrf49RxByte: [wreg+status,2+status,0+pclath+cstack]
  3725                           
  3726                           
  3727                           ;mrf49xa_cmd.c: 41: return Mrf49RxCmd(0xB0);
  3728  021C  30B0               	movlw	176
  3729  021D  2930               	ljmp	_Mrf49RxCmd
  3730  021E                     __end_of_Mrf49RxByte:	


Data Sizes:
    Strings     0
    Constant    55
    Data        0
    BSS         71
    Persistent  0
    Stack       0

Auto Spaces:
    Space          Size  Autos    Used
    COMMON           14      8      10
    BANK0            80      7      76
    BANK1            80      0       0
    BANK2            80      0       0

Pointer List with Targets:

    S321rfTrcvStatus_s$hwRx	PTR struct rfTrcvPacket_s size(1) Largest target is 70
		 -> rfTrcvStatus(BANK0[69]), 

    rfTrcvStatus.hwRx	PTR struct rfTrcvPacket_s size(1) Largest target is 70
		 -> rfTrcvStatus.rxPacket(BANK0[44]), rfTrcvStatus(BANK0[69]), 

    cb	PTR FTN(unsigned char ,)unsigned char  size(1) Largest target is 1
		 -> Absolute function(), 


Critical Paths under _main in COMMON

    _Mrf49xaInit->_Mrf49TxCmd
    _Mrf49xaModeRx->_Mrf49TxCmd
    _Mrf49TxCmd->_Mrf49SpiTx

Critical Paths under _extInt in COMMON

    _mrf49XaIsr->_Mrf49xaTick
    _Mrf49xaTick->i1_Mrf49xaModeRx
    i1_Mrf49xaModeRx->i1_Mrf49TxCmd
    i1_Mrf49TxCmd->i1_Mrf49SpiTx
    _Mrf49RxSts->_Mrf49SpiRx
    _Mrf49RxByte->_Mrf49RxCmd
    _Mrf49RxCmd->_Mrf49SpiRx
    _Mrf49RxCmd->i1_Mrf49SpiTx

Critical Paths under _main in BANK0

    _main->_Mrf49xaInit
    _Mrf49xaInit->_Mrf49xaModeRx
    _Mrf49xaModeRx->_Mrf49TxCmd

Critical Paths under _extInt in BANK0

    None.

Critical Paths under _main in BANK1

    None.

Critical Paths under _extInt in BANK1

    None.

Critical Paths under _main in BANK2

    None.

Critical Paths under _extInt in BANK2

    None.

Call Graph Tables:

 ---------------------------------------------------------------------------------
 (Depth) Function   	        Calls       Base Space   Used Autos Params    Refs
 ---------------------------------------------------------------------------------
 (0) _main                                                 2     2      0    1330
                                              5 BANK0      2     2      0
                         _ExtIntInit
                        _Mrf49xaInit
                        _SysInitGpio
 ---------------------------------------------------------------------------------
 (1) _SysInitGpio                                          0     0      0       0
 ---------------------------------------------------------------------------------
 (1) _Mrf49xaInit                                          3     3      0    1216
                                              2 BANK0      3     3      0
                         _Mrf49TxCmd
                      _Mrf49xaModeRx
 ---------------------------------------------------------------------------------
 (2) _Mrf49xaModeRx                                        1     1      0     562
                                              1 BANK0      1     1      0
                         _Mrf49TxCmd
 ---------------------------------------------------------------------------------
 (3) _Mrf49TxCmd                                           2     1      1     450
                                              7 COMMON     1     0      1
                                              0 BANK0      1     1      0
                         _Mrf49SpiTx
 ---------------------------------------------------------------------------------
 (4) _Mrf49SpiTx                                           1     1      0     176
                                              6 COMMON     1     1      0
 ---------------------------------------------------------------------------------
 (1) _ExtIntInit                                           0     0      0       0
 ---------------------------------------------------------------------------------
 Estimated maximum stack depth 4
 ---------------------------------------------------------------------------------
 (Depth) Function   	        Calls       Base Space   Used Autos Params    Refs
 ---------------------------------------------------------------------------------
 (5) _extInt                                               1     1      0    1896
                                              5 COMMON     1     1      0
                         _mrf49XaIsr
 ---------------------------------------------------------------------------------
 (6) _mrf49XaIsr                                           0     0      0    1896
                        _Mrf49xaTick
 ---------------------------------------------------------------------------------
 (7) _Mrf49xaTick                                          1     1      0    1896
                                              4 COMMON     1     1      0
                        _Mrf49RxByte
                         _Mrf49RxSts
                    i1_Mrf49xaModeRx
 ---------------------------------------------------------------------------------
 (8) i1_Mrf49xaModeRx                                      1     1      0    1188
                                              3 COMMON     1     1      0
                       i1_Mrf49TxCmd
 ---------------------------------------------------------------------------------
 (9) i1_Mrf49TxCmd                                         2     1      1     819
                                              1 COMMON     2     1      1
                       i1_Mrf49SpiTx
 ---------------------------------------------------------------------------------
 (8) _Mrf49RxSts                                           0     0      0      15
                         _Mrf49SpiRx
 ---------------------------------------------------------------------------------
 (8) _Mrf49RxByte                                          0     0      0     644
                         _Mrf49RxCmd
 ---------------------------------------------------------------------------------
 (9) _Mrf49RxCmd                                           2     2      0     644
                                              1 COMMON     2     2      0
                         _Mrf49SpiRx
                       i1_Mrf49SpiTx
 ---------------------------------------------------------------------------------
 (10) i1_Mrf49SpiTx                                        1     1      0     584
                                              0 COMMON     1     1      0
 ---------------------------------------------------------------------------------
 (9) _Mrf49SpiRx                                           1     1      0      15
                                              0 COMMON     1     1      0
 ---------------------------------------------------------------------------------
 Estimated maximum stack depth 10
 ---------------------------------------------------------------------------------

 Call Graph Graphs:

 _main (ROOT)
   _ExtIntInit
   _Mrf49xaInit
     _Mrf49TxCmd
       _Mrf49SpiTx
     _Mrf49xaModeRx
       _Mrf49TxCmd
         _Mrf49SpiTx
   _SysInitGpio

 _extInt (ROOT)
   _mrf49XaIsr
     _Mrf49xaTick
       _Mrf49RxByte
         _Mrf49RxCmd
           _Mrf49SpiRx
           i1_Mrf49SpiTx
       _Mrf49RxSts
         _Mrf49SpiRx
       i1_Mrf49xaModeRx
         i1_Mrf49TxCmd
           i1_Mrf49SpiTx

 Address spaces:
Name               Size   Autos  Total    Cost      Usage
BIGRAM              F0      0       0       0        0.0%
NULL                 0      0       0       0        0.0%
CODE                 0      0       0       0        0.0%
BITCOMMON            E      0       0       1        0.0%
BITSFR0              0      0       0       1        0.0%
SFR0                 0      0       0       1        0.0%
COMMON               E      8       A       2       71.4%
BITSFR1              0      0       0       2        0.0%
SFR1                 0      0       0       2        0.0%
BITSFR2              0      0       0       3        0.0%
SFR2                 0      0       0       3        0.0%
STACK                0      0       0       3        0.0%
BITSFR3              0      0       0       4        0.0%
SFR3                 0      0       0       4        0.0%
ABS                  0      0      56       4        0.0%
BITBANK0            50      0       0       5        0.0%
BITSFR4              0      0       0       5        0.0%
SFR4                 0      0       0       5        0.0%
BANK0               50      7      4C       6       95.0%
BITSFR5              0      0       0       6        0.0%
SFR5                 0      0       0       6        0.0%
BITBANK1            50      0       0       7        0.0%
BITSFR6              0      0       0       7        0.0%
SFR6                 0      0       0       7        0.0%
BANK1               50      0       0       8        0.0%
BITSFR7              0      0       0       8        0.0%
SFR7                 0      0       0       8        0.0%
BITBANK2            50      0       0       9        0.0%
BITSFR8              0      0       0       9        0.0%
SFR8                 0      0       0       9        0.0%
BANK2               50      0       0      10        0.0%
BITSFR9              0      0       0      10        0.0%
SFR9                 0      0       0      10        0.0%
BITSFR10             0      0       0      11        0.0%
SFR10                0      0       0      11        0.0%
DATA                 0      0      56      11        0.0%
BITSFR11             0      0       0      12        0.0%
SFR11                0      0       0      12        0.0%
BITSFR12             0      0       0      13        0.0%
SFR12                0      0       0      13        0.0%
BITSFR13             0      0       0      14        0.0%
SFR13                0      0       0      14        0.0%
BITSFR14             0      0       0      15        0.0%
SFR14                0      0       0      15        0.0%
BITSFR15             0      0       0      16        0.0%
SFR15                0      0       0      16        0.0%
BITSFR16             0      0       0      17        0.0%
SFR16                0      0       0      17        0.0%
BITSFR17             0      0       0      18        0.0%
SFR17                0      0       0      18        0.0%
BITSFR18             0      0       0      19        0.0%
SFR18                0      0       0      19        0.0%
BITSFR19             0      0       0      20        0.0%
SFR19                0      0       0      20        0.0%
BITSFR20             0      0       0      21        0.0%
SFR20                0      0       0      21        0.0%
BITSFR21             0      0       0      22        0.0%
SFR21                0      0       0      22        0.0%
BITSFR22             0      0       0      23        0.0%
SFR22                0      0       0      23        0.0%
BITSFR23             0      0       0      24        0.0%
SFR23                0      0       0      24        0.0%
BITSFR24             0      0       0      25        0.0%
SFR24                0      0       0      25        0.0%
BITSFR25             0      0       0      26        0.0%
SFR25                0      0       0      26        0.0%
BITSFR26             0      0       0      27        0.0%
SFR26                0      0       0      27        0.0%
BITSFR27             0      0       0      28        0.0%
SFR27                0      0       0      28        0.0%
BITSFR28             0      0       0      29        0.0%
SFR28                0      0       0      29        0.0%
BITSFR29             0      0       0      30        0.0%
SFR29                0      0       0      30        0.0%
BITSFR30             0      0       0      31        0.0%
SFR30                0      0       0      31        0.0%
BITSFR31             0      0       0      32        0.0%
SFR31                0      0       0      32        0.0%


Microchip Technology PIC Macro Assembler V1.30 build 55553 
Symbol Table                                                                                   Wed Apr 16 14:41:48 2014

                      l230 00BE                        l231 00C0                        l217 008A  
                      l250 00F1                        l242 00DD                        l234 00C9  
                      l251 00F2                        l243 00DE                        l235 00CA  
                      l254 00FB                        l246 00E7                        l238 00D3  
                      l255 00FC                        l247 00E8                        l239 00D4  
                      l351 005F                        l353 0070                        l258 0105  
                      l259 0106                        wreg 0009           i1Mrf49xaModeRx@k 0073  
                     l1111 0022                       l1121 003E                       l1125 0047  
                     l1117 002A                       l1223 005D                       l1161 0097  
                     l1163 00A3                       l1147 0089                       l1139 0080  
                     l1219 0057                       l1167 00AC                       _main 0049  
                     fsr0h 0005                       fsr0l 0004                       indf0 0000  
                     btemp 007E                       ltemp 007E                       start 0014  
                     ttemp 007E                       wtemp 007E    __end_ofi1_Mrf49xaModeRx 0161  
      __end_of_Mrf49RxByte 021E        __end_of_Mrf49xaInit 00AD        __end_of_Mrf49xaTick 01C7  
                    ?_main 0070                      i1l131 0011                      i1l230 0170  
                    i1l231 0171                      i1l250 01A2                      i1l242 018E  
                    i1l234 017A                      i1l251 01A3                      i1l243 018F  
                    i1l235 017B                      i1l254 01AC                      i1l246 0198  
                    i1l238 0184                      i1l255 01AD                      i1l247 0199  
                    i1l239 0185                      i1l258 01B6                      i1l259 01B7  
               _Mrf49RxCmd 0130                 _Mrf49TxCmd 00AD                 _Mrf49SpiRx 01D0  
               _Mrf49SpiTx 00B8                 _Mrf49RxSts 01C7                      main@i 006B  
                    main@j 006A                      ltemp0 007E                      ltemp1 0082  
                    ltemp2 0086                      ltemp3 0080                      ttemp0 007E  
                    ttemp1 0081                      ttemp2 0084                      ttemp3 0087  
                    ttemp4 007F                      wtemp0 007E                      wtemp1 0080  
                    wtemp2 0082                      wtemp3 0084                      wtemp4 0086  
                    wtemp5 0088                      wtemp6 007F            __initialization 0016  
               _ExtIntInit 0071               __end_of_main 0071                     ??_main 0078  
                   i1l1303 0156                     i1l1313 01C3                     i1l1307 015E  
                   i1l1289 021C                     i1l1299 0142                     _OSCCON 0099  
              _Mrf49RxByte 021C           ?i1_Mrf49xaModeRx 0070                _Mrf49xaInit 0077  
              _Mrf49xaTick 01BE                     _extInt 0004                ?_Mrf49RxCmd 0070  
              ?_Mrf49TxCmd 0077                ?_Mrf49SpiRx 0070                ?_Mrf49SpiTx 0070  
              ?_Mrf49RxSts 0070    __end_of__initialization 0020                ?_ExtIntInit 0070  
           __pcstackCOMMON 0070             _OPTION_REGbits 0095              ??_SysInitGpio 0076  
               __pbssBANK0 0020      __end_of_Mrf49xaModeRx 0049        __size_of_Mrf49RxCmd 000A  
      __size_of_Mrf49TxCmd 000B        __size_of_Mrf49SpiRx 004C        __size_of_Mrf49SpiTx 0055  
      __size_of_Mrf49RxSts 0009                 __pmaintext 0049                 __pintentry 0004  
                  ?_extInt 0070                 _mrf49XaIsr 012A        __size_of_ExtIntInit 0006  
               __stringtab 021E              ?i1_Mrf49TxCmd 0071              ?i1_Mrf49SpiTx 0070  
      __end_of_SysInitGpio 012A            __size_of_extInt 0010          _mrfRegset_InitCnt 021F  
                  __ptext1 010D                    __ptext2 0077                    __ptext3 0022  
                  __ptext4 00AD                    __ptext5 00B8                    __ptext6 0071  
                  __ptext8 012A                    __ptext9 01BE                    clrloop0 0257  
     end_of_initialization 0020               ?_Mrf49RxByte 0070             ??i1_Mrf49TxCmd 0072  
           ??i1_Mrf49SpiTx 0070               ?_Mrf49xaInit 0070       __end_of_mrfRegset_Rx 024E  
     __end_of_mrfRegset_Tx 0256               ?_Mrf49xaTick 0070  __end_of_mrfRegset_InitCnt 0220  
                _PORTAbits 000C                  _PORTCbits 000E               ??_Mrf49RxCmd 0071  
             ??_Mrf49TxCmd 0078               ??_Mrf49SpiRx 0070               ??_Mrf49SpiTx 0076  
             ??_Mrf49RxSts 0071                ?_mrf49XaIsr 0070                  _TRISAbits 008C  
                _TRISBbits 008D                  _TRISCbits 008E                _SysInitGpio 010D  
           Mrf49SpiRx@data 0070             Mrf49SpiTx@byte 0076         __end_of_Mrf49RxCmd 013A  
       __end_of_Mrf49TxCmd 00B8               ??_ExtIntInit 0076         __end_of_Mrf49SpiRx 021C  
       __end_of_Mrf49SpiTx 010D         __end_of_Mrf49RxSts 01D0   __size_ofi1_Mrf49xaModeRx 0027  
           __end_of_extInt 0014        start_initialization 0016         __end_of_ExtIntInit 0077  
      __size_of_mrf49XaIsr 0006            _mrfRegset_RxCnt 0220            _mrfRegset_TxCnt 0221  
                 ??_extInt 0075       __end_ofi1_Mrf49TxCmd 016B       __end_ofi1_Mrf49SpiTx 01BE  
              __pbssCOMMON 0078                  ___latbits 0001              __pcstackBANK0 0065  
             _rfTrcvStatus 0020       __size_of_Mrf49RxByte 0002       __size_of_Mrf49xaInit 0036  
     __size_of_Mrf49xaTick 0009                  __pstrings 021E     __size_of_Mrf49xaModeRx 0027  
             _mrfRegset_Rx 0242               _mrfRegset_Tx 024E          ??i1_Mrf49xaModeRx 0073  
                 _LATAbits 010C                   _LATBbits 010D                   _LATCbits 010E  
  __end_of_mrfRegset_RxCnt 0221    __end_of_mrfRegset_TxCnt 0222                  clear_ram0 0256  
              _mrf49Status 0078             Mrf49xaModeRx@k 0066              Mrf49RxCmd@cmd 0071  
            Mrf49RxCmd@val 0072              Mrf49TxCmd@cmd 0065              Mrf49TxCmd@val 0077  
                 _WPUAbits 020C               ??_mrf49XaIsr 0075               ?_SysInitGpio 0070  
            _Mrf49xaModeRx 0022             _mrfRegset_Init 0222         __end_of_mrf49XaIsr 0130  
    __size_ofi1_Mrf49TxCmd 000A      __size_ofi1_Mrf49SpiTx 0053           i1Mrf49SpiTx@byte 0070  
       __end_of__stringtab 021F                   __ptext10 013A                   __ptext11 0161  
                 __ptext12 01C7                   __ptext13 021C                   __ptext14 0130  
                 __ptext15 016B                   __ptext16 01D0              __size_of_main 0028  
   __end_of_mrfRegset_Init 0242               i1_Mrf49TxCmd 0161               i1_Mrf49SpiTx 016B  
           ?_Mrf49xaModeRx 0070                 _INTCONbits 000B            i1Mrf49TxCmd@cmd 0072  
          i1Mrf49TxCmd@val 0071                   intlevel1 0000               Mrf49xaInit@i 0067  
             Mrf49xaInit@j 0068               Mrf49xaInit@k 0069            i1_Mrf49xaModeRx 013A  
            ??_Mrf49RxByte 0073            ??_Mrf49xaModeRx 0078       __size_of_SysInitGpio 001D  
            ??_Mrf49xaInit 0078              ??_Mrf49xaTick 0074  
